
D:/home/6.kennkyuu/ALTAIR_DRONE/Software/firmware/pico_sensors/build_pico2/blinky_rescue.elf:     file format elf32-littlearm

Sections:
Idx Name          Size      VMA       LMA       File off  Algn
  0 .text         000014bc  10000000  10000000  00001000  2**3
                  CONTENTS, ALLOC, LOAD, READONLY, CODE
  1 .rodata       000000e0  100014bc  100014bc  000024bc  2**2
                  CONTENTS, ALLOC, LOAD, READONLY, DATA
  2 .ARM.exidx    00000008  1000159c  1000159c  0000259c  2**2
                  CONTENTS, ALLOC, LOAD, READONLY, DATA
  3 .binary_info  0000001c  100015a4  100015a4  000025a4  2**2
                  CONTENTS, ALLOC, LOAD, READONLY, DATA
  4 .ram_vector_table 00000110  20000000  20000000  00004000  2**2
                  ALLOC
  5 .uninitialized_data 00000000  20000110  20000110  00003718  2**0
                  CONTENTS
  6 .data         00000144  20000110  100015c0  00003110  2**3
                  CONTENTS, ALLOC, LOAD, READONLY, CODE
  7 .tdata        00000000  20000254  20000254  00003718  2**0
                  CONTENTS, ALLOC, LOAD, DATA, THREAD_LOCAL
  8 .tbss         00000000  20000254  20000254  00000000  2**0
                  ALLOC, THREAD_LOCAL
  9 .bss          00000214  20000258  10001704  00004258  2**3
                  ALLOC
 10 .heap         00000800  2000046c  10001704  0000446c  2**2
                  ALLOC, READONLY
 11 .scratch_x    00000000  20080000  20080000  00003718  2**0
                  CONTENTS
 12 .scratch_y    00000000  20081000  20081000  00003718  2**0
                  CONTENTS
 13 .stack_dummy  00000800  20081000  20081000  00004000  2**5
                  ALLOC, READONLY
 14 .flash_end    00000014  10001704  10001704  00003704  2**2
                  CONTENTS, ALLOC, LOAD, READONLY, DATA
 15 .ARM.attributes 00000034  00000000  00000000  00003718  2**0
                  CONTENTS, READONLY
 16 .comment      00000055  00000000  00000000  0000374c  2**0
                  CONTENTS, READONLY
 17 .debug_info   0001c88a  00000000  00000000  000037a1  2**0
                  CONTENTS, READONLY, DEBUGGING, OCTETS
 18 .debug_abbrev 00004e0b  00000000  00000000  0002002b  2**0
                  CONTENTS, READONLY, DEBUGGING, OCTETS
 19 .debug_loclists 0000da46  00000000  00000000  00024e36  2**0
                  CONTENTS, READONLY, DEBUGGING, OCTETS
 20 .debug_aranges 00000a18  00000000  00000000  00032880  2**3
                  CONTENTS, READONLY, DEBUGGING, OCTETS
 21 .debug_rnglists 00002acf  00000000  00000000  00033298  2**0
                  CONTENTS, READONLY, DEBUGGING, OCTETS
 22 .debug_line   0001490d  00000000  00000000  00035d67  2**0
                  CONTENTS, READONLY, DEBUGGING, OCTETS
 23 .debug_str    00005587  00000000  00000000  0004a674  2**0
                  CONTENTS, READONLY, DEBUGGING, OCTETS
 24 .debug_frame  00001c5c  00000000  00000000  0004fbfc  2**2
                  CONTENTS, READONLY, DEBUGGING, OCTETS
 25 .debug_line_str 000001c2  00000000  00000000  00051858  2**0
                  CONTENTS, READONLY, DEBUGGING, OCTETS

D:/home/6.kennkyuu/ALTAIR_DRONE/Software/firmware/pico_sensors/build_pico2/blinky_rescue.elf:     file format elf32-littlearm


Disassembly of section .text:

10000000 <__VECTOR_TABLE>:
10000000:	20082000 	.word	0x20082000
10000004:	1000015d 	.word	0x1000015d
10000008:	1000011b 	.word	0x1000011b
1000000c:	1000011d 	.word	0x1000011d
10000010:	10000111 	.word	0x10000111
10000014:	10000111 	.word	0x10000111
10000018:	10000111 	.word	0x10000111
1000001c:	10000111 	.word	0x10000111
10000020:	10000119 	.word	0x10000119
10000024:	10000119 	.word	0x10000119
10000028:	10000119 	.word	0x10000119
1000002c:	1000011f 	.word	0x1000011f
10000030:	10000111 	.word	0x10000111
10000034:	10000119 	.word	0x10000119
10000038:	10000121 	.word	0x10000121
1000003c:	10000123 	.word	0x10000123
10000040:	10000111 	.word	0x10000111
10000044:	10000111 	.word	0x10000111
10000048:	10000111 	.word	0x10000111
1000004c:	10000111 	.word	0x10000111
10000050:	10000111 	.word	0x10000111
10000054:	10000111 	.word	0x10000111
10000058:	10000111 	.word	0x10000111
1000005c:	10000111 	.word	0x10000111
10000060:	10000111 	.word	0x10000111
10000064:	10000111 	.word	0x10000111
10000068:	10000111 	.word	0x10000111
1000006c:	10000111 	.word	0x10000111
10000070:	10000111 	.word	0x10000111
10000074:	10000111 	.word	0x10000111
10000078:	10000111 	.word	0x10000111
1000007c:	10000111 	.word	0x10000111
10000080:	10000111 	.word	0x10000111
10000084:	10000111 	.word	0x10000111
10000088:	10000111 	.word	0x10000111
1000008c:	10000111 	.word	0x10000111
10000090:	10000111 	.word	0x10000111
10000094:	10000111 	.word	0x10000111
10000098:	10000111 	.word	0x10000111
1000009c:	10000111 	.word	0x10000111
100000a0:	10000111 	.word	0x10000111
100000a4:	10000111 	.word	0x10000111
100000a8:	10000111 	.word	0x10000111
100000ac:	10000111 	.word	0x10000111
100000b0:	10000111 	.word	0x10000111
100000b4:	10000111 	.word	0x10000111
100000b8:	10000111 	.word	0x10000111
100000bc:	10000111 	.word	0x10000111
100000c0:	10000111 	.word	0x10000111
100000c4:	10000111 	.word	0x10000111
100000c8:	10000111 	.word	0x10000111
100000cc:	10000111 	.word	0x10000111
100000d0:	10000111 	.word	0x10000111
100000d4:	10000111 	.word	0x10000111
100000d8:	10000111 	.word	0x10000111
100000dc:	10000111 	.word	0x10000111
100000e0:	10000111 	.word	0x10000111
100000e4:	10000111 	.word	0x10000111
100000e8:	10000111 	.word	0x10000111
100000ec:	10000111 	.word	0x10000111
100000f0:	10000111 	.word	0x10000111
100000f4:	10000111 	.word	0x10000111
100000f8:	10000111 	.word	0x10000111
100000fc:	10000111 	.word	0x10000111
10000100:	10000111 	.word	0x10000111
10000104:	10000111 	.word	0x10000111
10000108:	10000111 	.word	0x10000111
1000010c:	10000111 	.word	0x10000111

10000110 <__unhandled_user_irq>:
10000110:	f3ef 8005 	mrs	r0, IPSR
10000114:	3810      	subs	r0, #16

10000116 <unhandled_user_irq_num_in_r0>:
10000116:	be00      	bkpt	0x0000

10000118 <isr_invalid>:
10000118:	be00      	bkpt	0x0000

1000011a <isr_nmi>:
1000011a:	be00      	bkpt	0x0000

1000011c <isr_hardfault>:
1000011c:	be00      	bkpt	0x0000

1000011e <isr_svcall>:
1000011e:	be00      	bkpt	0x0000

10000120 <isr_pendsv>:
10000120:	be00      	bkpt	0x0000

10000122 <isr_systick>:
10000122:	be00      	bkpt	0x0000

10000124 <__default_isrs_end>:
10000124:	7188ebf2 	.word	0x7188ebf2
10000128:	100015a4 	.word	0x100015a4
1000012c:	100015c0 	.word	0x100015c0
10000130:	100001a0 	.word	0x100001a0
10000134:	e71aa390 	.word	0xe71aa390

10000138 <__binary_info_header_end>:
10000138:	ffffded3 	.word	0xffffded3
1000013c:	10210142 	.word	0x10210142
10000140:	000001ff 	.word	0x000001ff
10000144:	000015cc 	.word	0x000015cc
10000148:	ab123579 	.word	0xab123579

1000014c <_entry_point>:
1000014c:	f04f 0000 	mov.w	r0, #0

10000150 <_enter_vtable_in_r0>:
10000150:	491e      	ldr	r1, [pc, #120]	@ (100001cc <data_cpy_table+0x2c>)
10000152:	6008      	str	r0, [r1, #0]
10000154:	c806      	ldmia	r0!, {r1, r2}
10000156:	f381 8808 	msr	MSP, r1
1000015a:	4710      	bx	r2

1000015c <_reset_handler>:
1000015c:	f04f 4050 	mov.w	r0, #3489660928	@ 0xd0000000
10000160:	6800      	ldr	r0, [r0, #0]
10000162:	b110      	cbz	r0, 1000016a <hold_non_core0_in_bootrom+0x6>

10000164 <hold_non_core0_in_bootrom>:
10000164:	f04f 0000 	mov.w	r0, #0
10000168:	e7f2      	b.n	10000150 <_enter_vtable_in_r0>
1000016a:	a40d      	add	r4, pc, #52	@ (adr r4, 100001a0 <data_cpy_table>)
1000016c:	cc0e      	ldmia	r4!, {r1, r2, r3}
1000016e:	2900      	cmp	r1, #0
10000170:	d002      	beq.n	10000178 <hold_non_core0_in_bootrom+0x14>
10000172:	f000 f812 	bl	1000019a <data_cpy>
10000176:	e7f9      	b.n	1000016c <hold_non_core0_in_bootrom+0x8>
10000178:	4915      	ldr	r1, [pc, #84]	@ (100001d0 <data_cpy_table+0x30>)
1000017a:	4a16      	ldr	r2, [pc, #88]	@ (100001d4 <data_cpy_table+0x34>)
1000017c:	2000      	movs	r0, #0
1000017e:	e000      	b.n	10000182 <bss_fill_test>

10000180 <bss_fill_loop>:
10000180:	c101      	stmia	r1!, {r0}

10000182 <bss_fill_test>:
10000182:	4291      	cmp	r1, r2
10000184:	d1fc      	bne.n	10000180 <bss_fill_loop>

10000186 <platform_entry>:
10000186:	4914      	ldr	r1, [pc, #80]	@ (100001d8 <data_cpy_table+0x38>)
10000188:	4788      	blx	r1
1000018a:	4914      	ldr	r1, [pc, #80]	@ (100001dc <data_cpy_table+0x3c>)
1000018c:	4788      	blx	r1
1000018e:	4914      	ldr	r1, [pc, #80]	@ (100001e0 <data_cpy_table+0x40>)
10000190:	4788      	blx	r1
10000192:	be00      	bkpt	0x0000
10000194:	e7fd      	b.n	10000192 <platform_entry+0xc>

10000196 <data_cpy_loop>:
10000196:	c901      	ldmia	r1!, {r0}
10000198:	c201      	stmia	r2!, {r0}

1000019a <data_cpy>:
1000019a:	429a      	cmp	r2, r3
1000019c:	d3fb      	bcc.n	10000196 <data_cpy_loop>
1000019e:	4770      	bx	lr

100001a0 <data_cpy_table>:
100001a0:	100015c0 	.word	0x100015c0
100001a4:	20000110 	.word	0x20000110
100001a8:	20000254 	.word	0x20000254
100001ac:	10001704 	.word	0x10001704
100001b0:	20080000 	.word	0x20080000
100001b4:	20080000 	.word	0x20080000
100001b8:	10001704 	.word	0x10001704
100001bc:	20081000 	.word	0x20081000
100001c0:	20081000 	.word	0x20081000
100001c4:	00000000 	.word	0x00000000
100001c8:	4770      	bx	lr
100001ca:	0000      	.short	0x0000
100001cc:	e000ed08 	.word	0xe000ed08
100001d0:	20000254 	.word	0x20000254
100001d4:	2000046c 	.word	0x2000046c
100001d8:	10001099 	.word	0x10001099
100001dc:	10000235 	.word	0x10000235
100001e0:	10001091 	.word	0x10001091

100001e4 <_init>:
100001e4:	b5f8      	push	{r3, r4, r5, r6, r7, lr}
100001e6:	bf00      	nop

100001e8 <register_tm_clones>:
100001e8:	4b06      	ldr	r3, [pc, #24]	@ (10000204 <register_tm_clones+0x1c>)
100001ea:	4907      	ldr	r1, [pc, #28]	@ (10000208 <register_tm_clones+0x20>)
100001ec:	1ac9      	subs	r1, r1, r3
100001ee:	1089      	asrs	r1, r1, #2
100001f0:	bf48      	it	mi
100001f2:	3101      	addmi	r1, #1
100001f4:	1049      	asrs	r1, r1, #1
100001f6:	d003      	beq.n	10000200 <register_tm_clones+0x18>
100001f8:	4b04      	ldr	r3, [pc, #16]	@ (1000020c <register_tm_clones+0x24>)
100001fa:	b10b      	cbz	r3, 10000200 <register_tm_clones+0x18>
100001fc:	4801      	ldr	r0, [pc, #4]	@ (10000204 <register_tm_clones+0x1c>)
100001fe:	4718      	bx	r3
10000200:	4770      	bx	lr
10000202:	bf00      	nop
10000204:	20000254 	.word	0x20000254
10000208:	20000254 	.word	0x20000254
1000020c:	00000000 	.word	0x00000000

10000210 <frame_dummy>:
10000210:	b508      	push	{r3, lr}
10000212:	4b05      	ldr	r3, [pc, #20]	@ (10000228 <frame_dummy+0x18>)
10000214:	b11b      	cbz	r3, 1000021e <frame_dummy+0xe>
10000216:	4905      	ldr	r1, [pc, #20]	@ (1000022c <frame_dummy+0x1c>)
10000218:	4805      	ldr	r0, [pc, #20]	@ (10000230 <frame_dummy+0x20>)
1000021a:	f3af 8000 	nop.w
1000021e:	e8bd 4008 	ldmia.w	sp!, {r3, lr}
10000222:	f7ff bfe1 	b.w	100001e8 <register_tm_clones>
10000226:	bf00      	nop
10000228:	00000000 	.word	0x00000000
1000022c:	20000430 	.word	0x20000430
10000230:	100014bc 	.word	0x100014bc

10000234 <main>:
10000234:	b570      	push	{r4, r5, r6, lr}
10000236:	2019      	movs	r0, #25
10000238:	f000 f814 	bl	10000264 <gpio_init>
1000023c:	f04f 0501 	mov.w	r5, #1
10000240:	2319      	movs	r3, #25
10000242:	ec45 3044 	mcrr	0, 4, r3, r5, cr4
10000246:	f04f 0600 	mov.w	r6, #0
1000024a:	2419      	movs	r4, #25
1000024c:	ec45 4040 	mcrr	0, 4, r4, r5, cr0
10000250:	2064      	movs	r0, #100	@ 0x64
10000252:	f000 fc3f 	bl	10000ad4 <sleep_ms>
10000256:	ec46 4040 	mcrr	0, 4, r4, r6, cr0
1000025a:	2064      	movs	r0, #100	@ 0x64
1000025c:	f000 fc3a 	bl	10000ad4 <sleep_ms>
10000260:	e7f3      	b.n	1000024a <main+0x16>
10000262:	bf00      	nop

10000264 <gpio_init>:
10000264:	b430      	push	{r4, r5}
10000266:	f04f 0300 	mov.w	r3, #0
1000026a:	ec43 0044 	mcrr	0, 4, r0, r3, cr4
1000026e:	ec43 0040 	mcrr	0, 4, r0, r3, cr0
10000272:	2505      	movs	r5, #5
10000274:	f44f 7480 	mov.w	r4, #256	@ 0x100
10000278:	4b0b      	ldr	r3, [pc, #44]	@ (100002a8 <gpio_init+0x44>)
1000027a:	00c2      	lsls	r2, r0, #3
1000027c:	f853 1020 	ldr.w	r1, [r3, r0, lsl #2]
10000280:	eb03 0080 	add.w	r0, r3, r0, lsl #2
10000284:	f081 0140 	eor.w	r1, r1, #64	@ 0x40
10000288:	f102 4380 	add.w	r3, r2, #1073741824	@ 0x40000000
1000028c:	f503 3320 	add.w	r3, r3, #163840	@ 0x28000
10000290:	f001 02c0 	and.w	r2, r1, #192	@ 0xc0
10000294:	f500 5180 	add.w	r1, r0, #4096	@ 0x1000
10000298:	f500 5040 	add.w	r0, r0, #12288	@ 0x3000
1000029c:	600a      	str	r2, [r1, #0]
1000029e:	605d      	str	r5, [r3, #4]
100002a0:	6004      	str	r4, [r0, #0]
100002a2:	bc30      	pop	{r4, r5}
100002a4:	4770      	bx	lr
100002a6:	bf00      	nop
100002a8:	40038004 	.word	0x40038004

100002ac <panic>:
100002ac:	b40f      	push	{r0, r1, r2, r3}
100002ae:	b500      	push	{lr}
100002b0:	b083      	sub	sp, #12
100002b2:	9c04      	ldr	r4, [sp, #16]
100002b4:	4807      	ldr	r0, [pc, #28]	@ (100002d4 <panic+0x28>)
100002b6:	f001 f811 	bl	100012dc <__wrap_puts>
100002ba:	b13c      	cbz	r4, 100002cc <panic+0x20>
100002bc:	a905      	add	r1, sp, #20
100002be:	4620      	mov	r0, r4
100002c0:	9101      	str	r1, [sp, #4]
100002c2:	f000 fecb 	bl	1000105c <weak_raw_vprintf>
100002c6:	4804      	ldr	r0, [pc, #16]	@ (100002d8 <panic+0x2c>)
100002c8:	f001 f808 	bl	100012dc <__wrap_puts>
100002cc:	2001      	movs	r0, #1
100002ce:	f000 fedd 	bl	1000108c <_exit>
100002d2:	bf00      	nop
100002d4:	100014bc 	.word	0x100014bc
100002d8:	100014cc 	.word	0x100014cc

100002dc <hw_claim_or_assert>:
100002dc:	b570      	push	{r4, r5, r6, lr}
100002de:	4686      	mov	lr, r0
100002e0:	f3ef 8510 	mrs	r5, PRIMASK
100002e4:	b672      	cpsid	i
100002e6:	4c12      	ldr	r4, [pc, #72]	@ (10000330 <hw_claim_or_assert+0x54>)
100002e8:	e8d4 6fcf 	ldaexb	r6, [r4]
100002ec:	2001      	movs	r0, #1
100002ee:	2e00      	cmp	r6, #0
100002f0:	d1fa      	bne.n	100002e8 <hw_claim_or_assert+0xc>
100002f2:	e8c4 0f46 	strexb	r6, r0, [r4]
100002f6:	2e00      	cmp	r6, #0
100002f8:	d1f6      	bne.n	100002e8 <hw_claim_or_assert+0xc>
100002fa:	f3bf 8f5f 	dmb	sy
100002fe:	f04f 0c01 	mov.w	ip, #1
10000302:	08c8      	lsrs	r0, r1, #3
10000304:	f001 0307 	and.w	r3, r1, #7
10000308:	fa0c f303 	lsl.w	r3, ip, r3
1000030c:	f81e c000 	ldrb.w	ip, [lr, r0]
10000310:	ea1c 0603 	ands.w	r6, ip, r3
10000314:	d108      	bne.n	10000328 <hw_claim_or_assert+0x4c>
10000316:	ea4c 0c03 	orr.w	ip, ip, r3
1000031a:	f80e c000 	strb.w	ip, [lr, r0]
1000031e:	e8c4 6f8f 	stlb	r6, [r4]
10000322:	f385 8810 	msr	PRIMASK, r5
10000326:	bd70      	pop	{r4, r5, r6, pc}
10000328:	4610      	mov	r0, r2
1000032a:	f7ff ffbf 	bl	100002ac <panic>
1000032e:	bf00      	nop
10000330:	200003e3 	.word	0x200003e3

10000334 <next_striped_spin_lock_num>:
10000334:	4a04      	ldr	r2, [pc, #16]	@ (10000348 <next_striped_spin_lock_num+0x14>)
10000336:	7810      	ldrb	r0, [r2, #0]
10000338:	1c43      	adds	r3, r0, #1
1000033a:	b2db      	uxtb	r3, r3
1000033c:	2b18      	cmp	r3, #24
1000033e:	bf28      	it	cs
10000340:	2310      	movcs	r3, #16
10000342:	7013      	strb	r3, [r2, #0]
10000344:	4770      	bx	lr
10000346:	bf00      	nop
10000348:	20000230 	.word	0x20000230

1000034c <spinlock_set_extexclall>:
1000034c:	f04f 22e0 	mov.w	r2, #3758153728	@ 0xe000e000
10000350:	6893      	ldr	r3, [r2, #8]
10000352:	f043 5300 	orr.w	r3, r3, #536870912	@ 0x20000000
10000356:	6093      	str	r3, [r2, #8]
10000358:	4770      	bx	lr
1000035a:	bf00      	nop

1000035c <spin_locks_reset>:
1000035c:	2100      	movs	r1, #0
1000035e:	4b04      	ldr	r3, [pc, #16]	@ (10000370 <spin_locks_reset+0x14>)
10000360:	f103 0220 	add.w	r2, r3, #32
10000364:	e8c3 1f8f 	stlb	r1, [r3]
10000368:	3301      	adds	r3, #1
1000036a:	4293      	cmp	r3, r2
1000036c:	d1fa      	bne.n	10000364 <spin_locks_reset+0x8>
1000036e:	4770      	bx	lr
10000370:	200003d8 	.word	0x200003d8

10000374 <runtime_init_per_core_irq_priorities>:
10000374:	f04f 23e0 	mov.w	r3, #3758153728	@ 0xe000e000
10000378:	f04f 3280 	mov.w	r2, #2155905152	@ 0x80808080
1000037c:	f8c3 2400 	str.w	r2, [r3, #1024]	@ 0x400
10000380:	f8c3 2404 	str.w	r2, [r3, #1028]	@ 0x404
10000384:	f8c3 2408 	str.w	r2, [r3, #1032]	@ 0x408
10000388:	f8c3 240c 	str.w	r2, [r3, #1036]	@ 0x40c
1000038c:	f8c3 2410 	str.w	r2, [r3, #1040]	@ 0x410
10000390:	f8c3 2414 	str.w	r2, [r3, #1044]	@ 0x414
10000394:	f8c3 2418 	str.w	r2, [r3, #1048]	@ 0x418
10000398:	f8c3 241c 	str.w	r2, [r3, #1052]	@ 0x41c
1000039c:	f8c3 2420 	str.w	r2, [r3, #1056]	@ 0x420
100003a0:	f8c3 2424 	str.w	r2, [r3, #1060]	@ 0x424
100003a4:	f8c3 2428 	str.w	r2, [r3, #1064]	@ 0x428
100003a8:	f8c3 242c 	str.w	r2, [r3, #1068]	@ 0x42c
100003ac:	f8c3 2430 	str.w	r2, [r3, #1072]	@ 0x430
100003b0:	b662      	cpsie	i
100003b2:	4770      	bx	lr

100003b4 <irq_set_enabled>:
100003b4:	2301      	movs	r3, #1
100003b6:	f000 021f 	and.w	r2, r0, #31
100003ba:	4093      	lsls	r3, r2
100003bc:	0940      	lsrs	r0, r0, #5
100003be:	b141      	cbz	r1, 100003d2 <irq_set_enabled+0x1e>
100003c0:	0080      	lsls	r0, r0, #2
100003c2:	f100 4060 	add.w	r0, r0, #3758096384	@ 0xe0000000
100003c6:	f500 4061 	add.w	r0, r0, #57600	@ 0xe100
100003ca:	f8c0 3180 	str.w	r3, [r0, #384]	@ 0x180
100003ce:	6003      	str	r3, [r0, #0]
100003d0:	4770      	bx	lr
100003d2:	4a02      	ldr	r2, [pc, #8]	@ (100003dc <irq_set_enabled+0x28>)
100003d4:	3020      	adds	r0, #32
100003d6:	f842 3020 	str.w	r3, [r2, r0, lsl #2]
100003da:	4770      	bx	lr
100003dc:	e000e100 	.word	0xe000e100

100003e0 <irq_set_exclusive_handler>:
100003e0:	b5f8      	push	{r3, r4, r5, r6, r7, lr}
100003e2:	460d      	mov	r5, r1
100003e4:	f3ef 8710 	mrs	r7, PRIMASK
100003e8:	b672      	cpsid	i
100003ea:	4e12      	ldr	r6, [pc, #72]	@ (10000434 <irq_set_exclusive_handler+0x54>)
100003ec:	e8d6 2fcf 	ldaexb	r2, [r6]
100003f0:	2301      	movs	r3, #1
100003f2:	2a00      	cmp	r2, #0
100003f4:	d1fa      	bne.n	100003ec <irq_set_exclusive_handler+0xc>
100003f6:	e8c6 3f42 	strexb	r2, r3, [r6]
100003fa:	2a00      	cmp	r2, #0
100003fc:	d1f6      	bne.n	100003ec <irq_set_exclusive_handler+0xc>
100003fe:	f3bf 8f5f 	dmb	sy
10000402:	4b0d      	ldr	r3, [pc, #52]	@ (10000438 <irq_set_exclusive_handler+0x58>)
10000404:	f100 0410 	add.w	r4, r0, #16
10000408:	689b      	ldr	r3, [r3, #8]
1000040a:	4a0c      	ldr	r2, [pc, #48]	@ (1000043c <irq_set_exclusive_handler+0x5c>)
1000040c:	f853 3024 	ldr.w	r3, [r3, r4, lsl #2]
10000410:	4293      	cmp	r3, r2
10000412:	d003      	beq.n	1000041c <irq_set_exclusive_handler+0x3c>
10000414:	4299      	cmp	r1, r3
10000416:	d001      	beq.n	1000041c <irq_set_exclusive_handler+0x3c>
10000418:	f000 fd02 	bl	10000e20 <hard_assertion_failure>
1000041c:	4b06      	ldr	r3, [pc, #24]	@ (10000438 <irq_set_exclusive_handler+0x58>)
1000041e:	689b      	ldr	r3, [r3, #8]
10000420:	f843 5024 	str.w	r5, [r3, r4, lsl #2]
10000424:	f3bf 8f5f 	dmb	sy
10000428:	2300      	movs	r3, #0
1000042a:	e8c6 3f8f 	stlb	r3, [r6]
1000042e:	f387 8810 	msr	PRIMASK, r7
10000432:	bdf8      	pop	{r3, r4, r5, r6, r7, pc}
10000434:	200003e1 	.word	0x200003e1
10000438:	e000ed00 	.word	0xe000ed00
1000043c:	10000111 	.word	0x10000111

10000440 <lock_init>:
10000440:	4b01      	ldr	r3, [pc, #4]	@ (10000448 <lock_init+0x8>)
10000442:	440b      	add	r3, r1
10000444:	6003      	str	r3, [r0, #0]
10000446:	4770      	bx	lr
10000448:	200003d8 	.word	0x200003d8

1000044c <runtime_init_mutex>:
1000044c:	e92d 41f0 	stmdb	sp!, {r4, r5, r6, r7, r8, lr}
10000450:	4d13      	ldr	r5, [pc, #76]	@ (100004a0 <runtime_init_mutex+0x54>)
10000452:	4f14      	ldr	r7, [pc, #80]	@ (100004a4 <runtime_init_mutex+0x58>)
10000454:	42bd      	cmp	r5, r7
10000456:	d221      	bcs.n	1000049c <runtime_init_mutex+0x50>
10000458:	f04f 08ff 	mov.w	r8, #255	@ 0xff
1000045c:	462c      	mov	r4, r5
1000045e:	e00c      	b.n	1000047a <runtime_init_mutex+0x2e>
10000460:	f7ff ff68 	bl	10000334 <next_striped_spin_lock_num>
10000464:	4601      	mov	r1, r0
10000466:	4628      	mov	r0, r5
10000468:	f7ff ffea 	bl	10000440 <lock_init>
1000046c:	f8a6 8004 	strh.w	r8, [r6, #4]
10000470:	f3bf 8f5f 	dmb	sy
10000474:	42bc      	cmp	r4, r7
10000476:	d211      	bcs.n	1000049c <runtime_init_mutex+0x50>
10000478:	4625      	mov	r5, r4
1000047a:	6823      	ldr	r3, [r4, #0]
1000047c:	4626      	mov	r6, r4
1000047e:	3408      	adds	r4, #8
10000480:	2b00      	cmp	r3, #0
10000482:	d1ed      	bne.n	10000460 <runtime_init_mutex+0x14>
10000484:	f7ff ff56 	bl	10000334 <next_striped_spin_lock_num>
10000488:	4601      	mov	r1, r0
1000048a:	4628      	mov	r0, r5
1000048c:	f7ff ffd8 	bl	10000440 <lock_init>
10000490:	f886 8004 	strb.w	r8, [r6, #4]
10000494:	f3bf 8f5f 	dmb	sy
10000498:	42bc      	cmp	r4, r7
1000049a:	d3ed      	bcc.n	10000478 <runtime_init_mutex+0x2c>
1000049c:	e8bd 81f0 	ldmia.w	sp!, {r4, r5, r6, r7, r8, pc}
100004a0:	2000024c 	.word	0x2000024c
100004a4:	20000254 	.word	0x20000254

100004a8 <sleep_until_callback>:
100004a8:	4b0d      	ldr	r3, [pc, #52]	@ (100004e0 <sleep_until_callback+0x38>)
100004aa:	681a      	ldr	r2, [r3, #0]
100004ac:	f3ef 8110 	mrs	r1, PRIMASK
100004b0:	b672      	cpsid	i
100004b2:	e8d2 cfcf 	ldaexb	ip, [r2]
100004b6:	2001      	movs	r0, #1
100004b8:	f1bc 0f00 	cmp.w	ip, #0
100004bc:	d1f9      	bne.n	100004b2 <sleep_until_callback+0xa>
100004be:	e8c2 0f4c 	strexb	ip, r0, [r2]
100004c2:	f1bc 0f00 	cmp.w	ip, #0
100004c6:	d1f4      	bne.n	100004b2 <sleep_until_callback+0xa>
100004c8:	f3bf 8f5f 	dmb	sy
100004cc:	2200      	movs	r2, #0
100004ce:	681b      	ldr	r3, [r3, #0]
100004d0:	e8c3 2f8f 	stlb	r2, [r3]
100004d4:	f381 8810 	msr	PRIMASK, r1
100004d8:	bf40      	sev
100004da:	2000      	movs	r0, #0
100004dc:	2100      	movs	r1, #0
100004de:	4770      	bx	lr
100004e0:	20000468 	.word	0x20000468
100004e4:	00000000 	.word	0x00000000

100004e8 <alarm_pool_irq_handler>:
100004e8:	e92d 4ff0 	stmdb	sp!, {r4, r5, r6, r7, r8, r9, sl, fp, lr}
100004ec:	ed2d 8b02 	vpush	{d8}
100004f0:	b085      	sub	sp, #20
100004f2:	f3ef 8305 	mrs	r3, IPSR
100004f6:	b2db      	uxtb	r3, r3
100004f8:	3b10      	subs	r3, #16
100004fa:	089a      	lsrs	r2, r3, #2
100004fc:	bf18      	it	ne
100004fe:	2201      	movne	r2, #1
10000500:	f04f 0101 	mov.w	r1, #1
10000504:	f003 0003 	and.w	r0, r3, #3
10000508:	bf08      	it	eq
1000050a:	4dad      	ldreq	r5, [pc, #692]	@ (100007c0 <alarm_pool_irq_handler+0x2d8>)
1000050c:	4bad      	ldr	r3, [pc, #692]	@ (100007c4 <alarm_pool_irq_handler+0x2dc>)
1000050e:	bf18      	it	ne
10000510:	4dad      	ldrne	r5, [pc, #692]	@ (100007c8 <alarm_pool_irq_handler+0x2e0>)
10000512:	eb00 0282 	add.w	r2, r0, r2, lsl #2
10000516:	f853 6022 	ldr.w	r6, [r3, r2, lsl #2]
1000051a:	fa01 fb00 	lsl.w	fp, r1, r0
1000051e:	f505 5341 	add.w	r3, r5, #12352	@ 0x3040
10000522:	ed9f 8ba5 	vldr	d8, [pc, #660]	@ 100007b8 <alarm_pool_irq_handler+0x2d0>
10000526:	9001      	str	r0, [sp, #4]
10000528:	f8c3 b004 	str.w	fp, [r3, #4]
1000052c:	e02e      	b.n	1000058c <alarm_pool_irq_handler+0xa4>
1000052e:	88b3      	ldrh	r3, [r6, #4]
10000530:	0419      	lsls	r1, r3, #16
10000532:	f140 8092 	bpl.w	1000065a <alarm_pool_irq_handler+0x172>
10000536:	79b3      	ldrb	r3, [r6, #6]
10000538:	2b00      	cmp	r3, #0
1000053a:	f040 80dc 	bne.w	100006f6 <alarm_pool_irq_handler+0x20e>
1000053e:	f9b6 2008 	ldrsh.w	r2, [r6, #8]
10000542:	2a00      	cmp	r2, #0
10000544:	f2c0 811b 	blt.w	1000077e <alarm_pool_irq_handler+0x296>
10000548:	6973      	ldr	r3, [r6, #20]
1000054a:	eb02 0242 	add.w	r2, r2, r2, lsl #1
1000054e:	eb03 03c2 	add.w	r3, r3, r2, lsl #3
10000552:	e9d3 4702 	ldrd	r4, r7, [r3, #8]
10000556:	f1b7 3fff 	cmp.w	r7, #4294967295
1000055a:	bf08      	it	eq
1000055c:	f1b4 3fff 	cmpeq.w	r4, #4294967295
10000560:	d00d      	beq.n	1000057e <alarm_pool_irq_handler+0x96>
10000562:	9b01      	ldr	r3, [sp, #4]
10000564:	eb05 0183 	add.w	r1, r5, r3, lsl #2
10000568:	6aab      	ldr	r3, [r5, #40]	@ 0x28
1000056a:	690a      	ldr	r2, [r1, #16]
1000056c:	1ad2      	subs	r2, r2, r3
1000056e:	1ae3      	subs	r3, r4, r3
10000570:	4293      	cmp	r3, r2
10000572:	d303      	bcc.n	1000057c <alarm_pool_irq_handler+0x94>
10000574:	6a2b      	ldr	r3, [r5, #32]
10000576:	ea13 0f0b 	tst.w	r3, fp
1000057a:	d100      	bne.n	1000057e <alarm_pool_irq_handler+0x96>
1000057c:	610c      	str	r4, [r1, #16]
1000057e:	4628      	mov	r0, r5
10000580:	f000 fb2e 	bl	10000be0 <timer_time_us_64>
10000584:	42a0      	cmp	r0, r4
10000586:	41b9      	sbcs	r1, r7
10000588:	f2c0 80f9 	blt.w	1000077e <alarm_pool_irq_handler+0x296>
1000058c:	f9b6 3008 	ldrsh.w	r3, [r6, #8]
10000590:	f8c5 b03c 	str.w	fp, [r5, #60]	@ 0x3c
10000594:	2b00      	cmp	r3, #0
10000596:	9300      	str	r3, [sp, #0]
10000598:	dbc9      	blt.n	1000052e <alarm_pool_irq_handler+0x46>
1000059a:	f8d6 9014 	ldr.w	r9, [r6, #20]
1000059e:	eb03 0a43 	add.w	sl, r3, r3, lsl #1
100005a2:	4628      	mov	r0, r5
100005a4:	eb09 07ca 	add.w	r7, r9, sl, lsl #3
100005a8:	e9d7 4802 	ldrd	r4, r8, [r7, #8]
100005ac:	f000 fb18 	bl	10000be0 <timer_time_us_64>
100005b0:	42a0      	cmp	r0, r4
100005b2:	eb71 0108 	sbcs.w	r1, r1, r8
100005b6:	dbba      	blt.n	1000052e <alarm_pool_irq_handler+0x46>
100005b8:	f1b8 0f00 	cmp.w	r8, #0
100005bc:	f2c0 80c1 	blt.w	10000742 <alarm_pool_irq_handler+0x25a>
100005c0:	e9d7 3104 	ldrd	r3, r1, [r7, #16]
100005c4:	4a81      	ldr	r2, [pc, #516]	@ (100007cc <alarm_pool_irq_handler+0x2e4>)
100005c6:	4293      	cmp	r3, r2
100005c8:	f000 80eb 	beq.w	100007a2 <alarm_pool_irq_handler+0x2ba>
100005cc:	887a      	ldrh	r2, [r7, #2]
100005ce:	f9b6 0008 	ldrsh.w	r0, [r6, #8]
100005d2:	b292      	uxth	r2, r2
100005d4:	ea42 4000 	orr.w	r0, r2, r0, lsl #16
100005d8:	4798      	blx	r3
100005da:	4602      	mov	r2, r0
100005dc:	460b      	mov	r3, r1
100005de:	ea52 0103 	orrs.w	r1, r2, r3
100005e2:	f000 80ae 	beq.w	10000742 <alarm_pool_irq_handler+0x25a>
100005e6:	2b00      	cmp	r3, #0
100005e8:	f280 80cf 	bge.w	1000078a <alarm_pool_irq_handler+0x2a2>
100005ec:	ebb4 0e02 	subs.w	lr, r4, r2
100005f0:	eb68 0803 	sbc.w	r8, r8, r3
100005f4:	f939 303a 	ldrsh.w	r3, [r9, sl, lsl #3]
100005f8:	e9c7 e802 	strd	lr, r8, [r7, #8]
100005fc:	2b00      	cmp	r3, #0
100005fe:	db96      	blt.n	1000052e <alarm_pool_irq_handler+0x46>
10000600:	6971      	ldr	r1, [r6, #20]
10000602:	eb03 0243 	add.w	r2, r3, r3, lsl #1
10000606:	eb01 02c2 	add.w	r2, r1, r2, lsl #3
1000060a:	e9d2 7002 	ldrd	r7, r0, [r2, #8]
1000060e:	45be      	cmp	lr, r7
10000610:	eb78 0c00 	sbcs.w	ip, r8, r0
10000614:	ea4f 0243 	mov.w	r2, r3, lsl #1
10000618:	db89      	blt.n	1000052e <alarm_pool_irq_handler+0x46>
1000061a:	46b4      	mov	ip, r6
1000061c:	f82c 3f08 	strh.w	r3, [ip, #8]!
10000620:	e00b      	b.n	1000063a <alarm_pool_irq_handler+0x152>
10000622:	f931 3032 	ldrsh.w	r3, [r1, r2, lsl #3]
10000626:	46a4      	mov	ip, r4
10000628:	2b00      	cmp	r3, #0
1000062a:	db0d      	blt.n	10000648 <alarm_pool_irq_handler+0x160>
1000062c:	eb03 0043 	add.w	r0, r3, r3, lsl #1
10000630:	eb01 00c0 	add.w	r0, r1, r0, lsl #3
10000634:	005a      	lsls	r2, r3, #1
10000636:	e9d0 7002 	ldrd	r7, r0, [r0, #8]
1000063a:	45be      	cmp	lr, r7
1000063c:	441a      	add	r2, r3
1000063e:	eb78 0000 	sbcs.w	r0, r8, r0
10000642:	eb01 04c2 	add.w	r4, r1, r2, lsl #3
10000646:	daec      	bge.n	10000622 <alarm_pool_irq_handler+0x13a>
10000648:	f829 303a 	strh.w	r3, [r9, sl, lsl #3]
1000064c:	9b00      	ldr	r3, [sp, #0]
1000064e:	f8ac 3000 	strh.w	r3, [ip]
10000652:	88b3      	ldrh	r3, [r6, #4]
10000654:	0419      	lsls	r1, r3, #16
10000656:	f53f af6e 	bmi.w	10000536 <alarm_pool_irq_handler+0x4e>
1000065a:	6933      	ldr	r3, [r6, #16]
1000065c:	f3ef 8210 	mrs	r2, PRIMASK
10000660:	b672      	cpsid	i
10000662:	e8d3 0fcf 	ldaexb	r0, [r3]
10000666:	2101      	movs	r1, #1
10000668:	2800      	cmp	r0, #0
1000066a:	d1fa      	bne.n	10000662 <alarm_pool_irq_handler+0x17a>
1000066c:	e8c3 1f40 	strexb	r0, r1, [r3]
10000670:	2800      	cmp	r0, #0
10000672:	d1f6      	bne.n	10000662 <alarm_pool_irq_handler+0x17a>
10000674:	f3bf 8f5f 	dmb	sy
10000678:	f64f 74ff 	movw	r4, #65535	@ 0xffff
1000067c:	88b0      	ldrh	r0, [r6, #4]
1000067e:	2300      	movs	r3, #0
10000680:	6931      	ldr	r1, [r6, #16]
10000682:	b200      	sxth	r0, r0
10000684:	80b4      	strh	r4, [r6, #4]
10000686:	e8c1 3f8f 	stlb	r3, [r1]
1000068a:	f382 8810 	msr	PRIMASK, r2
1000068e:	4298      	cmp	r0, r3
10000690:	f6ff af51 	blt.w	10000536 <alarm_pool_irq_handler+0x4e>
10000694:	4607      	mov	r7, r0
10000696:	46a9      	mov	r9, r5
10000698:	6974      	ldr	r4, [r6, #20]
1000069a:	f106 0808 	add.w	r8, r6, #8
1000069e:	eb07 0e47 	add.w	lr, r7, r7, lsl #1
100006a2:	eb04 03ce 	add.w	r3, r4, lr, lsl #3
100006a6:	e9d3 0502 	ldrd	r0, r5, [r3, #8]
100006aa:	f9b6 3008 	ldrsh.w	r3, [r6, #8]
100006ae:	46c4      	mov	ip, r8
100006b0:	2b00      	cmp	r3, #0
100006b2:	db13      	blt.n	100006dc <alarm_pool_irq_handler+0x1f4>
100006b4:	46b2      	mov	sl, r6
100006b6:	9700      	str	r7, [sp, #0]
100006b8:	e004      	b.n	100006c4 <alarm_pool_irq_handler+0x1dc>
100006ba:	f934 3036 	ldrsh.w	r3, [r4, r6, lsl #3]
100006be:	4694      	mov	ip, r2
100006c0:	2b00      	cmp	r3, #0
100006c2:	db09      	blt.n	100006d8 <alarm_pool_irq_handler+0x1f0>
100006c4:	eb03 0643 	add.w	r6, r3, r3, lsl #1
100006c8:	eb04 02c6 	add.w	r2, r4, r6, lsl #3
100006cc:	e9d2 7102 	ldrd	r7, r1, [r2, #8]
100006d0:	42b8      	cmp	r0, r7
100006d2:	eb75 0101 	sbcs.w	r1, r5, r1
100006d6:	daf0      	bge.n	100006ba <alarm_pool_irq_handler+0x1d2>
100006d8:	4656      	mov	r6, sl
100006da:	9f00      	ldr	r7, [sp, #0]
100006dc:	f8ac 7000 	strh.w	r7, [ip]
100006e0:	f934 703e 	ldrsh.w	r7, [r4, lr, lsl #3]
100006e4:	f824 303e 	strh.w	r3, [r4, lr, lsl #3]
100006e8:	2f00      	cmp	r7, #0
100006ea:	dad8      	bge.n	1000069e <alarm_pool_irq_handler+0x1b6>
100006ec:	79b3      	ldrb	r3, [r6, #6]
100006ee:	464d      	mov	r5, r9
100006f0:	2b00      	cmp	r3, #0
100006f2:	f43f af24 	beq.w	1000053e <alarm_pool_irq_handler+0x56>
100006f6:	2300      	movs	r3, #0
100006f8:	71b3      	strb	r3, [r6, #6]
100006fa:	f9b6 3008 	ldrsh.w	r3, [r6, #8]
100006fe:	f106 0e08 	add.w	lr, r6, #8
10000702:	1c5a      	adds	r2, r3, #1
10000704:	d03b      	beq.n	1000077e <alarm_pool_irq_handler+0x296>
10000706:	461a      	mov	r2, r3
10000708:	6974      	ldr	r4, [r6, #20]
1000070a:	e003      	b.n	10000714 <alarm_pool_irq_handler+0x22c>
1000070c:	4686      	mov	lr, r0
1000070e:	1c59      	adds	r1, r3, #1
10000710:	f43f af17 	beq.w	10000542 <alarm_pool_irq_handler+0x5a>
10000714:	eb03 0143 	add.w	r1, r3, r3, lsl #1
10000718:	eb04 00c1 	add.w	r0, r4, r1, lsl #3
1000071c:	8847      	ldrh	r7, [r0, #2]
1000071e:	469c      	mov	ip, r3
10000720:	043f      	lsls	r7, r7, #16
10000722:	f934 3031 	ldrsh.w	r3, [r4, r1, lsl #3]
10000726:	d5f1      	bpl.n	1000070c <alarm_pool_irq_handler+0x224>
10000728:	4594      	cmp	ip, r2
1000072a:	ed80 8b02 	vstr	d8, [r0, #8]
1000072e:	d0ee      	beq.n	1000070e <alarm_pool_irq_handler+0x226>
10000730:	f8ae 3000 	strh.w	r3, [lr]
10000734:	8932      	ldrh	r2, [r6, #8]
10000736:	f824 2031 	strh.w	r2, [r4, r1, lsl #3]
1000073a:	4662      	mov	r2, ip
1000073c:	f8a6 c008 	strh.w	ip, [r6, #8]
10000740:	e7e5      	b.n	1000070e <alarm_pool_irq_handler+0x226>
10000742:	f839 303a 	ldrh.w	r3, [r9, sl, lsl #3]
10000746:	8133      	strh	r3, [r6, #8]
10000748:	6933      	ldr	r3, [r6, #16]
1000074a:	f3ef 8210 	mrs	r2, PRIMASK
1000074e:	b672      	cpsid	i
10000750:	e8d3 0fcf 	ldaexb	r0, [r3]
10000754:	2101      	movs	r1, #1
10000756:	2800      	cmp	r0, #0
10000758:	d1fa      	bne.n	10000750 <alarm_pool_irq_handler+0x268>
1000075a:	e8c3 1f40 	strexb	r0, r1, [r3]
1000075e:	2800      	cmp	r0, #0
10000760:	d1f6      	bne.n	10000750 <alarm_pool_irq_handler+0x268>
10000762:	f3bf 8f5f 	dmb	sy
10000766:	8873      	ldrh	r3, [r6, #2]
10000768:	6931      	ldr	r1, [r6, #16]
1000076a:	f829 303a 	strh.w	r3, [r9, sl, lsl #3]
1000076e:	9b00      	ldr	r3, [sp, #0]
10000770:	8073      	strh	r3, [r6, #2]
10000772:	2300      	movs	r3, #0
10000774:	e8c1 3f8f 	stlb	r3, [r1]
10000778:	f382 8810 	msr	PRIMASK, r2
1000077c:	e6d7      	b.n	1000052e <alarm_pool_irq_handler+0x46>
1000077e:	bf40      	sev
10000780:	b005      	add	sp, #20
10000782:	ecbd 8b02 	vpop	{d8}
10000786:	e8bd 8ff0 	ldmia.w	sp!, {r4, r5, r6, r7, r8, r9, sl, fp, pc}
1000078a:	4628      	mov	r0, r5
1000078c:	e9cd 2302 	strd	r2, r3, [sp, #8]
10000790:	f000 fa26 	bl	10000be0 <timer_time_us_64>
10000794:	9a02      	ldr	r2, [sp, #8]
10000796:	9b03      	ldr	r3, [sp, #12]
10000798:	eb10 0e02 	adds.w	lr, r0, r2
1000079c:	eb43 0801 	adc.w	r8, r3, r1
100007a0:	e728      	b.n	100005f4 <alarm_pool_irq_handler+0x10c>
100007a2:	4608      	mov	r0, r1
100007a4:	690b      	ldr	r3, [r1, #16]
100007a6:	9102      	str	r1, [sp, #8]
100007a8:	4798      	blx	r3
100007aa:	2800      	cmp	r0, #0
100007ac:	d0c9      	beq.n	10000742 <alarm_pool_irq_handler+0x25a>
100007ae:	9902      	ldr	r1, [sp, #8]
100007b0:	e9d1 2300 	ldrd	r2, r3, [r1]
100007b4:	e713      	b.n	100005de <alarm_pool_irq_handler+0xf6>
100007b6:	bf00      	nop
100007b8:	ffffffff 	.word	0xffffffff
100007bc:	ffffffff 	.word	0xffffffff
100007c0:	400b0000 	.word	0x400b0000
100007c4:	20000448 	.word	0x20000448
100007c8:	400b8000 	.word	0x400b8000
100007cc:	100004e9 	.word	0x100004e9

100007d0 <runtime_init_default_alarm_pool>:
100007d0:	e92d 4ff8 	stmdb	sp!, {r3, r4, r5, r6, r7, r8, r9, sl, fp, lr}
100007d4:	4c36      	ldr	r4, [pc, #216]	@ (100008b0 <runtime_init_default_alarm_pool+0xe0>)
100007d6:	6925      	ldr	r5, [r4, #16]
100007d8:	b12d      	cbz	r5, 100007e6 <runtime_init_default_alarm_pool+0x16>
100007da:	e8bd 4ff8 	ldmia.w	sp!, {r3, r4, r5, r6, r7, r8, r9, sl, fp, lr}
100007de:	210a      	movs	r1, #10
100007e0:	4834      	ldr	r0, [pc, #208]	@ (100008b4 <runtime_init_default_alarm_pool+0xe4>)
100007e2:	f7ff be2d 	b.w	10000440 <lock_init>
100007e6:	f8df 80e4 	ldr.w	r8, [pc, #228]	@ 100008cc <runtime_init_default_alarm_pool+0xfc>
100007ea:	2103      	movs	r1, #3
100007ec:	4640      	mov	r0, r8
100007ee:	f000 f9e5 	bl	10000bbc <timer_hardware_alarm_claim>
100007f2:	2603      	movs	r6, #3
100007f4:	f8c4 800c 	str.w	r8, [r4, #12]
100007f8:	f7ff fd9c 	bl	10000334 <next_striped_spin_lock_num>
100007fc:	f04f 4c50 	mov.w	ip, #3489660928	@ 0xd0000000
10000800:	4b2d      	ldr	r3, [pc, #180]	@ (100008b8 <runtime_init_default_alarm_pool+0xe8>)
10000802:	7026      	strb	r6, [r4, #0]
10000804:	4403      	add	r3, r0
10000806:	6123      	str	r3, [r4, #16]
10000808:	f8dc 3000 	ldr.w	r3, [ip]
1000080c:	210f      	movs	r1, #15
1000080e:	7063      	strb	r3, [r4, #1]
10000810:	6963      	ldr	r3, [r4, #20]
10000812:	8061      	strh	r1, [r4, #2]
10000814:	831d      	strh	r5, [r3, #24]
10000816:	f04f 0504 	mov.w	r5, #4
1000081a:	f8a3 5078 	strh.w	r5, [r3, #120]	@ 0x78
1000081e:	f04f 0505 	mov.w	r5, #5
10000822:	f8a3 5090 	strh.w	r5, [r3, #144]	@ 0x90
10000826:	f04f 0506 	mov.w	r5, #6
1000082a:	f8a3 50a8 	strh.w	r5, [r3, #168]	@ 0xa8
1000082e:	f04f 0507 	mov.w	r5, #7
10000832:	210e      	movs	r1, #14
10000834:	2708      	movs	r7, #8
10000836:	f64f 72ff 	movw	r2, #65535	@ 0xffff
1000083a:	f04f 0e0a 	mov.w	lr, #10
1000083e:	f8a3 50c0 	strh.w	r5, [r3, #192]	@ 0xc0
10000842:	f04f 0901 	mov.w	r9, #1
10000846:	f04f 0c0c 	mov.w	ip, #12
1000084a:	f04f 0b02 	mov.w	fp, #2
1000084e:	f04f 0a09 	mov.w	sl, #9
10000852:	200d      	movs	r0, #13
10000854:	f04f 050b 	mov.w	r5, #11
10000858:	f8a3 1168 	strh.w	r1, [r3, #360]	@ 0x168
1000085c:	4917      	ldr	r1, [pc, #92]	@ (100008bc <runtime_init_default_alarm_pool+0xec>)
1000085e:	80a2      	strh	r2, [r4, #4]
10000860:	f8a3 e108 	strh.w	lr, [r3, #264]	@ 0x108
10000864:	60a1      	str	r1, [r4, #8]
10000866:	f8a3 b048 	strh.w	fp, [r3, #72]	@ 0x48
1000086a:	f8a3 a0f0 	strh.w	sl, [r3, #240]	@ 0xf0
1000086e:	f8a3 5120 	strh.w	r5, [r3, #288]	@ 0x120
10000872:	f8a3 c138 	strh.w	ip, [r3, #312]	@ 0x138
10000876:	f8a3 0150 	strh.w	r0, [r3, #336]	@ 0x150
1000087a:	f8a3 9030 	strh.w	r9, [r3, #48]	@ 0x30
1000087e:	f8a3 6060 	strh.w	r6, [r3, #96]	@ 0x60
10000882:	f8a3 70d8 	strh.w	r7, [r3, #216]	@ 0xd8
10000886:	801a      	strh	r2, [r3, #0]
10000888:	4b0d      	ldr	r3, [pc, #52]	@ (100008c0 <runtime_init_default_alarm_pool+0xf0>)
1000088a:	4630      	mov	r0, r6
1000088c:	f8c8 7020 	str.w	r7, [r8, #32]
10000890:	490c      	ldr	r1, [pc, #48]	@ (100008c4 <runtime_init_default_alarm_pool+0xf4>)
10000892:	60dc      	str	r4, [r3, #12]
10000894:	f7ff fda4 	bl	100003e0 <irq_set_exclusive_handler>
10000898:	4649      	mov	r1, r9
1000089a:	4630      	mov	r0, r6
1000089c:	f7ff fd8a 	bl	100003b4 <irq_set_enabled>
100008a0:	4b09      	ldr	r3, [pc, #36]	@ (100008c8 <runtime_init_default_alarm_pool+0xf8>)
100008a2:	210a      	movs	r1, #10
100008a4:	641f      	str	r7, [r3, #64]	@ 0x40
100008a6:	4803      	ldr	r0, [pc, #12]	@ (100008b4 <runtime_init_default_alarm_pool+0xe4>)
100008a8:	e8bd 4ff8 	ldmia.w	sp!, {r3, r4, r5, r6, r7, r8, r9, sl, fp, lr}
100008ac:	f7ff bdc8 	b.w	10000440 <lock_init>
100008b0:	20000234 	.word	0x20000234
100008b4:	20000468 	.word	0x20000468
100008b8:	200003d8 	.word	0x200003d8
100008bc:	0010ffff 	.word	0x0010ffff
100008c0:	20000448 	.word	0x20000448
100008c4:	100004e9 	.word	0x100004e9
100008c8:	400b2000 	.word	0x400b2000
100008cc:	400b0000 	.word	0x400b0000

100008d0 <alarm_pool_add_alarm_at_force_in_context>:
100008d0:	4601      	mov	r1, r0
100008d2:	b5f0      	push	{r4, r5, r6, r7, lr}
100008d4:	6900      	ldr	r0, [r0, #16]
100008d6:	f3ef 8710 	mrs	r7, PRIMASK
100008da:	b672      	cpsid	i
100008dc:	e8d0 5fcf 	ldaexb	r5, [r0]
100008e0:	2401      	movs	r4, #1
100008e2:	2d00      	cmp	r5, #0
100008e4:	d1fa      	bne.n	100008dc <alarm_pool_add_alarm_at_force_in_context+0xc>
100008e6:	e8c0 4f45 	strexb	r5, r4, [r0]
100008ea:	2d00      	cmp	r5, #0
100008ec:	d1f6      	bne.n	100008dc <alarm_pool_add_alarm_at_force_in_context+0xc>
100008ee:	f3bf 8f5f 	dmb	sy
100008f2:	f9b1 e002 	ldrsh.w	lr, [r1, #2]
100008f6:	694c      	ldr	r4, [r1, #20]
100008f8:	eb0e 0c4e 	add.w	ip, lr, lr, lsl #1
100008fc:	f1be 0f00 	cmp.w	lr, #0
10000900:	ea4f 05cc 	mov.w	r5, ip, lsl #3
10000904:	eb04 0ccc 	add.w	ip, r4, ip, lsl #3
10000908:	db3d      	blt.n	10000986 <alarm_pool_add_alarm_at_force_in_context+0xb6>
1000090a:	5b60      	ldrh	r0, [r4, r5]
1000090c:	2600      	movs	r6, #0
1000090e:	8048      	strh	r0, [r1, #2]
10000910:	6908      	ldr	r0, [r1, #16]
10000912:	e8c0 6f8f 	stlb	r6, [r0]
10000916:	f387 8810 	msr	PRIMASK, r7
1000091a:	f8bc 0002 	ldrh.w	r0, [ip, #2]
1000091e:	e9cc 2302 	strd	r2, r3, [ip, #8]
10000922:	3001      	adds	r0, #1
10000924:	f3c0 000e 	ubfx	r0, r0, #0, #15
10000928:	2801      	cmp	r0, #1
1000092a:	bf38      	it	cc
1000092c:	2001      	movcc	r0, #1
1000092e:	9b05      	ldr	r3, [sp, #20]
10000930:	f8ac 0002 	strh.w	r0, [ip, #2]
10000934:	f8cc 3010 	str.w	r3, [ip, #16]
10000938:	9b06      	ldr	r3, [sp, #24]
1000093a:	ea40 400e 	orr.w	r0, r0, lr, lsl #16
1000093e:	f8cc 3014 	str.w	r3, [ip, #20]
10000942:	690b      	ldr	r3, [r1, #16]
10000944:	f3ef 8210 	mrs	r2, PRIMASK
10000948:	b672      	cpsid	i
1000094a:	e8d3 cfcf 	ldaexb	ip, [r3]
1000094e:	2701      	movs	r7, #1
10000950:	f1bc 0f00 	cmp.w	ip, #0
10000954:	d1f9      	bne.n	1000094a <alarm_pool_add_alarm_at_force_in_context+0x7a>
10000956:	e8c3 7f4c 	strexb	ip, r7, [r3]
1000095a:	f1bc 0f00 	cmp.w	ip, #0
1000095e:	d1f4      	bne.n	1000094a <alarm_pool_add_alarm_at_force_in_context+0x7a>
10000960:	f3bf 8f5f 	dmb	sy
10000964:	888b      	ldrh	r3, [r1, #4]
10000966:	5363      	strh	r3, [r4, r5]
10000968:	f8a1 e004 	strh.w	lr, [r1, #4]
1000096c:	690b      	ldr	r3, [r1, #16]
1000096e:	e8c3 6f8f 	stlb	r6, [r3]
10000972:	f382 8810 	msr	PRIMASK, r2
10000976:	2201      	movs	r2, #1
10000978:	68cb      	ldr	r3, [r1, #12]
1000097a:	7809      	ldrb	r1, [r1, #0]
1000097c:	f503 5301 	add.w	r3, r3, #8256	@ 0x2040
10000980:	408a      	lsls	r2, r1
10000982:	605a      	str	r2, [r3, #4]
10000984:	bdf0      	pop	{r4, r5, r6, r7, pc}
10000986:	2300      	movs	r3, #0
10000988:	690a      	ldr	r2, [r1, #16]
1000098a:	e8c2 3f8f 	stlb	r3, [r2]
1000098e:	f387 8810 	msr	PRIMASK, r7
10000992:	f04f 30ff 	mov.w	r0, #4294967295
10000996:	bdf0      	pop	{r4, r5, r6, r7, pc}

10000998 <alarm_pool_cancel_alarm>:
10000998:	4603      	mov	r3, r0
1000099a:	8940      	ldrh	r0, [r0, #10]
1000099c:	ebb0 4f21 	cmp.w	r0, r1, asr #16
100009a0:	dd37      	ble.n	10000a12 <alarm_pool_cancel_alarm+0x7a>
100009a2:	6958      	ldr	r0, [r3, #20]
100009a4:	140a      	asrs	r2, r1, #16
100009a6:	eb02 0242 	add.w	r2, r2, r2, lsl #1
100009aa:	b510      	push	{r4, lr}
100009ac:	eb00 00c2 	add.w	r0, r0, r2, lsl #3
100009b0:	691c      	ldr	r4, [r3, #16]
100009b2:	f3ef 8c10 	mrs	ip, PRIMASK
100009b6:	b672      	cpsid	i
100009b8:	e8d4 efcf 	ldaexb	lr, [r4]
100009bc:	2201      	movs	r2, #1
100009be:	f1be 0f00 	cmp.w	lr, #0
100009c2:	d1f9      	bne.n	100009b8 <alarm_pool_cancel_alarm+0x20>
100009c4:	e8c4 2f4e 	strexb	lr, r2, [r4]
100009c8:	f1be 0f00 	cmp.w	lr, #0
100009cc:	d1f4      	bne.n	100009b8 <alarm_pool_cancel_alarm+0x20>
100009ce:	f3bf 8f5f 	dmb	sy
100009d2:	8842      	ldrh	r2, [r0, #2]
100009d4:	b289      	uxth	r1, r1
100009d6:	b292      	uxth	r2, r2
100009d8:	428a      	cmp	r2, r1
100009da:	d007      	beq.n	100009ec <alarm_pool_cancel_alarm+0x54>
100009dc:	2200      	movs	r2, #0
100009de:	691b      	ldr	r3, [r3, #16]
100009e0:	e8c3 2f8f 	stlb	r2, [r3]
100009e4:	f38c 8810 	msr	PRIMASK, ip
100009e8:	2000      	movs	r0, #0
100009ea:	bd10      	pop	{r4, pc}
100009ec:	f442 4200 	orr.w	r2, r2, #32768	@ 0x8000
100009f0:	8042      	strh	r2, [r0, #2]
100009f2:	2101      	movs	r1, #1
100009f4:	2200      	movs	r2, #0
100009f6:	6918      	ldr	r0, [r3, #16]
100009f8:	7199      	strb	r1, [r3, #6]
100009fa:	e8c0 2f8f 	stlb	r2, [r0]
100009fe:	f38c 8810 	msr	PRIMASK, ip
10000a02:	781c      	ldrb	r4, [r3, #0]
10000a04:	68da      	ldr	r2, [r3, #12]
10000a06:	4608      	mov	r0, r1
10000a08:	f502 5301 	add.w	r3, r2, #8256	@ 0x2040
10000a0c:	40a1      	lsls	r1, r4
10000a0e:	6059      	str	r1, [r3, #4]
10000a10:	bd10      	pop	{r4, pc}
10000a12:	2000      	movs	r0, #0
10000a14:	4770      	bx	lr
10000a16:	bf00      	nop

10000a18 <sleep_until>:
10000a18:	e92d 41f0 	stmdb	sp!, {r4, r5, r6, r7, r8, lr}
10000a1c:	1f86      	subs	r6, r0, #6
10000a1e:	f141 35ff 	adc.w	r5, r1, #4294967295
10000a22:	42b0      	cmp	r0, r6
10000a24:	eb71 0305 	sbcs.w	r3, r1, r5
10000a28:	bf38      	it	cc
10000a2a:	2600      	movcc	r6, #0
10000a2c:	b082      	sub	sp, #8
10000a2e:	bf38      	it	cc
10000a30:	4635      	movcc	r5, r6
10000a32:	4604      	mov	r4, r0
10000a34:	460f      	mov	r7, r1
10000a36:	f000 f8db 	bl	10000bf0 <time_us_64>
10000a3a:	1a30      	subs	r0, r6, r0
10000a3c:	eb65 0301 	sbc.w	r3, r5, r1
10000a40:	2801      	cmp	r0, #1
10000a42:	f173 0300 	sbcs.w	r3, r3, #0
10000a46:	da06      	bge.n	10000a56 <sleep_until+0x3e>
10000a48:	4620      	mov	r0, r4
10000a4a:	4639      	mov	r1, r7
10000a4c:	b002      	add	sp, #8
10000a4e:	e8bd 41f0 	ldmia.w	sp!, {r4, r5, r6, r7, r8, lr}
10000a52:	f000 b8d7 	b.w	10000c04 <busy_wait_until>
10000a56:	f000 f8cb 	bl	10000bf0 <time_us_64>
10000a5a:	4286      	cmp	r6, r0
10000a5c:	eb65 0101 	sbc.w	r1, r5, r1
10000a60:	2900      	cmp	r1, #0
10000a62:	db0a      	blt.n	10000a7a <sleep_until+0x62>
10000a64:	2100      	movs	r1, #0
10000a66:	4b17      	ldr	r3, [pc, #92]	@ (10000ac4 <sleep_until+0xac>)
10000a68:	4632      	mov	r2, r6
10000a6a:	9300      	str	r3, [sp, #0]
10000a6c:	4816      	ldr	r0, [pc, #88]	@ (10000ac8 <sleep_until+0xb0>)
10000a6e:	462b      	mov	r3, r5
10000a70:	9101      	str	r1, [sp, #4]
10000a72:	f7ff ff2d 	bl	100008d0 <alarm_pool_add_alarm_at_force_in_context>
10000a76:	2800      	cmp	r0, #0
10000a78:	dbe6      	blt.n	10000a48 <sleep_until+0x30>
10000a7a:	f04f 0c00 	mov.w	ip, #0
10000a7e:	4813      	ldr	r0, [pc, #76]	@ (10000acc <sleep_until+0xb4>)
10000a80:	4a13      	ldr	r2, [pc, #76]	@ (10000ad0 <sleep_until+0xb8>)
10000a82:	6a43      	ldr	r3, [r0, #36]	@ 0x24
10000a84:	429d      	cmp	r5, r3
10000a86:	d804      	bhi.n	10000a92 <sleep_until+0x7a>
10000a88:	6a81      	ldr	r1, [r0, #40]	@ 0x28
10000a8a:	42b1      	cmp	r1, r6
10000a8c:	d2dc      	bcs.n	10000a48 <sleep_until+0x30>
10000a8e:	429d      	cmp	r5, r3
10000a90:	d1da      	bne.n	10000a48 <sleep_until+0x30>
10000a92:	6813      	ldr	r3, [r2, #0]
10000a94:	f3ef 8110 	mrs	r1, PRIMASK
10000a98:	b672      	cpsid	i
10000a9a:	e8d3 8fcf 	ldaexb	r8, [r3]
10000a9e:	f05f 0e01 	movs.w	lr, #1
10000aa2:	f1b8 0f00 	cmp.w	r8, #0
10000aa6:	d1f8      	bne.n	10000a9a <sleep_until+0x82>
10000aa8:	e8c3 ef48 	strexb	r8, lr, [r3]
10000aac:	f1b8 0f00 	cmp.w	r8, #0
10000ab0:	d1f3      	bne.n	10000a9a <sleep_until+0x82>
10000ab2:	f3bf 8f5f 	dmb	sy
10000ab6:	6813      	ldr	r3, [r2, #0]
10000ab8:	e8c3 cf8f 	stlb	ip, [r3]
10000abc:	f381 8810 	msr	PRIMASK, r1
10000ac0:	bf20      	wfe
10000ac2:	e7de      	b.n	10000a82 <sleep_until+0x6a>
10000ac4:	100004a9 	.word	0x100004a9
10000ac8:	20000234 	.word	0x20000234
10000acc:	400b0000 	.word	0x400b0000
10000ad0:	20000468 	.word	0x20000468

10000ad4 <sleep_ms>:
10000ad4:	b510      	push	{r4, lr}
10000ad6:	4604      	mov	r4, r0
10000ad8:	f000 f88a 	bl	10000bf0 <time_us_64>
10000adc:	f44f 737a 	mov.w	r3, #1000	@ 0x3e8
10000ae0:	f04f 3cff 	mov.w	ip, #4294967295
10000ae4:	f06f 4200 	mvn.w	r2, #2147483648	@ 0x80000000
10000ae8:	fbe4 0103 	umlal	r0, r1, r4, r3
10000aec:	e8bd 4010 	ldmia.w	sp!, {r4, lr}
10000af0:	4584      	cmp	ip, r0
10000af2:	eb72 0301 	sbcs.w	r3, r2, r1
10000af6:	bf3c      	itt	cc
10000af8:	4660      	movcc	r0, ip
10000afa:	4611      	movcc	r1, r2
10000afc:	f7ff bf8c 	b.w	10000a18 <sleep_until>

10000b00 <best_effort_wfe_or_timeout>:
10000b00:	e92d 43f0 	stmdb	sp!, {r4, r5, r6, r7, r8, r9, lr}
10000b04:	4606      	mov	r6, r0
10000b06:	460d      	mov	r5, r1
10000b08:	b083      	sub	sp, #12
10000b0a:	f3ef 8405 	mrs	r4, IPSR
10000b0e:	b2e4      	uxtb	r4, r4
10000b10:	b13c      	cbz	r4, 10000b22 <best_effort_wfe_or_timeout+0x22>
10000b12:	4b27      	ldr	r3, [pc, #156]	@ (10000bb0 <best_effort_wfe_or_timeout+0xb0>)
10000b14:	6a58      	ldr	r0, [r3, #36]	@ 0x24
10000b16:	42a8      	cmp	r0, r5
10000b18:	d21c      	bcs.n	10000b54 <best_effort_wfe_or_timeout+0x54>
10000b1a:	2000      	movs	r0, #0
10000b1c:	b003      	add	sp, #12
10000b1e:	e8bd 83f0 	ldmia.w	sp!, {r4, r5, r6, r7, r8, r9, pc}
10000b22:	4f24      	ldr	r7, [pc, #144]	@ (10000bb4 <best_effort_wfe_or_timeout+0xb4>)
10000b24:	f8d7 900c 	ldr.w	r9, [r7, #12]
10000b28:	f897 8000 	ldrb.w	r8, [r7]
10000b2c:	4648      	mov	r0, r9
10000b2e:	f000 f857 	bl	10000be0 <timer_time_us_64>
10000b32:	f108 0804 	add.w	r8, r8, #4
10000b36:	f859 3028 	ldr.w	r3, [r9, r8, lsl #2]
10000b3a:	1a1b      	subs	r3, r3, r0
10000b3c:	1a30      	subs	r0, r6, r0
10000b3e:	eb65 0101 	sbc.w	r1, r5, r1
10000b42:	4298      	cmp	r0, r3
10000b44:	f171 0100 	sbcs.w	r1, r1, #0
10000b48:	db11      	blt.n	10000b6e <best_effort_wfe_or_timeout+0x6e>
10000b4a:	bf20      	wfe
10000b4c:	4b18      	ldr	r3, [pc, #96]	@ (10000bb0 <best_effort_wfe_or_timeout+0xb0>)
10000b4e:	6a58      	ldr	r0, [r3, #36]	@ 0x24
10000b50:	42a8      	cmp	r0, r5
10000b52:	d3e2      	bcc.n	10000b1a <best_effort_wfe_or_timeout+0x1a>
10000b54:	6a9b      	ldr	r3, [r3, #40]	@ 0x28
10000b56:	42b3      	cmp	r3, r6
10000b58:	d303      	bcc.n	10000b62 <best_effort_wfe_or_timeout+0x62>
10000b5a:	2001      	movs	r0, #1
10000b5c:	b003      	add	sp, #12
10000b5e:	e8bd 83f0 	ldmia.w	sp!, {r4, r5, r6, r7, r8, r9, pc}
10000b62:	1b40      	subs	r0, r0, r5
10000b64:	bf18      	it	ne
10000b66:	2001      	movne	r0, #1
10000b68:	b003      	add	sp, #12
10000b6a:	e8bd 83f0 	ldmia.w	sp!, {r4, r5, r6, r7, r8, r9, pc}
10000b6e:	f000 f83f 	bl	10000bf0 <time_us_64>
10000b72:	4286      	cmp	r6, r0
10000b74:	eb65 0101 	sbc.w	r1, r5, r1
10000b78:	2900      	cmp	r1, #0
10000b7a:	dbca      	blt.n	10000b12 <best_effort_wfe_or_timeout+0x12>
10000b7c:	4b0e      	ldr	r3, [pc, #56]	@ (10000bb8 <best_effort_wfe_or_timeout+0xb8>)
10000b7e:	4638      	mov	r0, r7
10000b80:	e9cd 3400 	strd	r3, r4, [sp]
10000b84:	4632      	mov	r2, r6
10000b86:	462b      	mov	r3, r5
10000b88:	f7ff fea2 	bl	100008d0 <alarm_pool_add_alarm_at_force_in_context>
10000b8c:	1e01      	subs	r1, r0, #0
10000b8e:	ddc0      	ble.n	10000b12 <best_effort_wfe_or_timeout+0x12>
10000b90:	4b07      	ldr	r3, [pc, #28]	@ (10000bb0 <best_effort_wfe_or_timeout+0xb0>)
10000b92:	6a5a      	ldr	r2, [r3, #36]	@ 0x24
10000b94:	42aa      	cmp	r2, r5
10000b96:	d308      	bcc.n	10000baa <best_effort_wfe_or_timeout+0xaa>
10000b98:	6a9b      	ldr	r3, [r3, #40]	@ 0x28
10000b9a:	42b3      	cmp	r3, r6
10000b9c:	d303      	bcc.n	10000ba6 <best_effort_wfe_or_timeout+0xa6>
10000b9e:	4805      	ldr	r0, [pc, #20]	@ (10000bb4 <best_effort_wfe_or_timeout+0xb4>)
10000ba0:	f7ff fefa 	bl	10000998 <alarm_pool_cancel_alarm>
10000ba4:	e7b5      	b.n	10000b12 <best_effort_wfe_or_timeout+0x12>
10000ba6:	42aa      	cmp	r2, r5
10000ba8:	d1f9      	bne.n	10000b9e <best_effort_wfe_or_timeout+0x9e>
10000baa:	bf20      	wfe
10000bac:	e7f7      	b.n	10000b9e <best_effort_wfe_or_timeout+0x9e>
10000bae:	bf00      	nop
10000bb0:	400b0000 	.word	0x400b0000
10000bb4:	20000234 	.word	0x20000234
10000bb8:	100004a9 	.word	0x100004a9

10000bbc <timer_hardware_alarm_claim>:
10000bbc:	b410      	push	{r4}
10000bbe:	4b05      	ldr	r3, [pc, #20]	@ (10000bd4 <timer_hardware_alarm_claim+0x18>)
10000bc0:	4c05      	ldr	r4, [pc, #20]	@ (10000bd8 <timer_hardware_alarm_claim+0x1c>)
10000bc2:	4a06      	ldr	r2, [pc, #24]	@ (10000bdc <timer_hardware_alarm_claim+0x20>)
10000bc4:	42a0      	cmp	r0, r4
10000bc6:	bf14      	ite	ne
10000bc8:	4618      	movne	r0, r3
10000bca:	1c58      	addeq	r0, r3, #1
10000bcc:	f85d 4b04 	ldr.w	r4, [sp], #4
10000bd0:	f7ff bb84 	b.w	100002dc <hw_claim_or_assert>
10000bd4:	200003f8 	.word	0x200003f8
10000bd8:	400b8000 	.word	0x400b8000
10000bdc:	100014d0 	.word	0x100014d0

10000be0 <timer_time_us_64>:
10000be0:	4603      	mov	r3, r0
10000be2:	6a41      	ldr	r1, [r0, #36]	@ 0x24
10000be4:	460a      	mov	r2, r1
10000be6:	6a98      	ldr	r0, [r3, #40]	@ 0x28
10000be8:	6a59      	ldr	r1, [r3, #36]	@ 0x24
10000bea:	428a      	cmp	r2, r1
10000bec:	d1fa      	bne.n	10000be4 <timer_time_us_64+0x4>
10000bee:	4770      	bx	lr

10000bf0 <time_us_64>:
10000bf0:	4b03      	ldr	r3, [pc, #12]	@ (10000c00 <time_us_64+0x10>)
10000bf2:	6a59      	ldr	r1, [r3, #36]	@ 0x24
10000bf4:	460a      	mov	r2, r1
10000bf6:	6a98      	ldr	r0, [r3, #40]	@ 0x28
10000bf8:	6a59      	ldr	r1, [r3, #36]	@ 0x24
10000bfa:	4291      	cmp	r1, r2
10000bfc:	d1fa      	bne.n	10000bf4 <time_us_64+0x4>
10000bfe:	4770      	bx	lr
10000c00:	400b0000 	.word	0x400b0000

10000c04 <busy_wait_until>:
10000c04:	4a07      	ldr	r2, [pc, #28]	@ (10000c24 <busy_wait_until+0x20>)
10000c06:	6a53      	ldr	r3, [r2, #36]	@ 0x24
10000c08:	4299      	cmp	r1, r3
10000c0a:	d8fc      	bhi.n	10000c06 <busy_wait_until+0x2>
10000c0c:	4299      	cmp	r1, r3
10000c0e:	d107      	bne.n	10000c20 <busy_wait_until+0x1c>
10000c10:	4b04      	ldr	r3, [pc, #16]	@ (10000c24 <busy_wait_until+0x20>)
10000c12:	e002      	b.n	10000c1a <busy_wait_until+0x16>
10000c14:	6a5a      	ldr	r2, [r3, #36]	@ 0x24
10000c16:	4291      	cmp	r1, r2
10000c18:	d102      	bne.n	10000c20 <busy_wait_until+0x1c>
10000c1a:	6a9a      	ldr	r2, [r3, #40]	@ 0x28
10000c1c:	4282      	cmp	r2, r0
10000c1e:	d3f9      	bcc.n	10000c14 <busy_wait_until+0x10>
10000c20:	4770      	bx	lr
10000c22:	bf00      	nop
10000c24:	400b0000 	.word	0x400b0000

10000c28 <clock_configure_undivided>:
10000c28:	eb00 0c40 	add.w	ip, r0, r0, lsl #1
10000c2c:	ea4f 0c8c 	mov.w	ip, ip, lsl #2
10000c30:	f10c 4c80 	add.w	ip, ip, #1073741824	@ 0x40000000
10000c34:	f50c 3c80 	add.w	ip, ip, #65536	@ 0x10000
10000c38:	b5f0      	push	{r4, r5, r6, r7, lr}
10000c3a:	4616      	mov	r6, r2
10000c3c:	f8dc 2004 	ldr.w	r2, [ip, #4]
10000c40:	1f05      	subs	r5, r0, #4
10000c42:	f5b2 3f80 	cmp.w	r2, #65536	@ 0x10000
10000c46:	bf38      	it	cc
10000c48:	f44f 3280 	movcc.w	r2, #65536	@ 0x10000
10000c4c:	b2ed      	uxtb	r5, r5
10000c4e:	bf38      	it	cc
10000c50:	f8cc 2004 	strcc.w	r2, [ip, #4]
10000c54:	2d01      	cmp	r5, #1
10000c56:	f50c 5240 	add.w	r2, ip, #12288	@ 0x3000
10000c5a:	d928      	bls.n	10000cae <clock_configure_undivided+0x86>
10000c5c:	f44f 6400 	mov.w	r4, #2048	@ 0x800
10000c60:	6014      	str	r4, [r2, #0]
10000c62:	4c23      	ldr	r4, [pc, #140]	@ (10000cf0 <clock_configure_undivided+0xc8>)
10000c64:	f854 2020 	ldr.w	r2, [r4, r0, lsl #2]
10000c68:	b9b2      	cbnz	r2, 10000c98 <clock_configure_undivided+0x70>
10000c6a:	f8dc 2000 	ldr.w	r2, [ip]
10000c6e:	2d01      	cmp	r5, #1
10000c70:	ea82 1246 	eor.w	r2, r2, r6, lsl #5
10000c74:	f002 02e0 	and.w	r2, r2, #224	@ 0xe0
10000c78:	f50c 5680 	add.w	r6, ip, #4096	@ 0x1000
10000c7c:	6032      	str	r2, [r6, #0]
10000c7e:	d928      	bls.n	10000cd2 <clock_configure_undivided+0xaa>
10000c80:	f44f 6100 	mov.w	r1, #2048	@ 0x800
10000c84:	f844 3020 	str.w	r3, [r4, r0, lsl #2]
10000c88:	f44f 3380 	mov.w	r3, #65536	@ 0x10000
10000c8c:	f50c 5200 	add.w	r2, ip, #8192	@ 0x2000
10000c90:	6011      	str	r1, [r2, #0]
10000c92:	f8cc 3004 	str.w	r3, [ip, #4]
10000c96:	bdf0      	pop	{r4, r5, r6, r7, pc}
10000c98:	6967      	ldr	r7, [r4, #20]
10000c9a:	fbb7 fef2 	udiv	lr, r7, r2
10000c9e:	f10e 0e01 	add.w	lr, lr, #1
10000ca2:	eb0e 0e4e 	add.w	lr, lr, lr, lsl #1
10000ca6:	f1be 0e03 	subs.w	lr, lr, #3
10000caa:	d2fc      	bcs.n	10000ca6 <clock_configure_undivided+0x7e>
10000cac:	e7dd      	b.n	10000c6a <clock_configure_undivided+0x42>
10000cae:	2901      	cmp	r1, #1
10000cb0:	d1d4      	bne.n	10000c5c <clock_configure_undivided+0x34>
10000cb2:	2403      	movs	r4, #3
10000cb4:	6014      	str	r4, [r2, #0]
10000cb6:	f8dc 2008 	ldr.w	r2, [ip, #8]
10000cba:	07d2      	lsls	r2, r2, #31
10000cbc:	d5fb      	bpl.n	10000cb6 <clock_configure_undivided+0x8e>
10000cbe:	f8dc 2000 	ldr.w	r2, [ip]
10000cc2:	4c0b      	ldr	r4, [pc, #44]	@ (10000cf0 <clock_configure_undivided+0xc8>)
10000cc4:	ea82 1246 	eor.w	r2, r2, r6, lsl #5
10000cc8:	f002 02e0 	and.w	r2, r2, #224	@ 0xe0
10000ccc:	f50c 5680 	add.w	r6, ip, #4096	@ 0x1000
10000cd0:	6032      	str	r2, [r6, #0]
10000cd2:	2201      	movs	r2, #1
10000cd4:	f8dc 5000 	ldr.w	r5, [ip]
10000cd8:	404d      	eors	r5, r1
10000cda:	f005 0503 	and.w	r5, r5, #3
10000cde:	6035      	str	r5, [r6, #0]
10000ce0:	fa02 f101 	lsl.w	r1, r2, r1
10000ce4:	f8dc 2008 	ldr.w	r2, [ip, #8]
10000ce8:	420a      	tst	r2, r1
10000cea:	d0fb      	beq.n	10000ce4 <clock_configure_undivided+0xbc>
10000cec:	e7c8      	b.n	10000c80 <clock_configure_undivided+0x58>
10000cee:	bf00      	nop
10000cf0:	200003fc 	.word	0x200003fc

10000cf4 <clock_get_hz>:
10000cf4:	4b01      	ldr	r3, [pc, #4]	@ (10000cfc <clock_get_hz+0x8>)
10000cf6:	f853 0020 	ldr.w	r0, [r3, r0, lsl #2]
10000cfa:	4770      	bx	lr
10000cfc:	200003fc 	.word	0x200003fc

10000d00 <pll_init>:
10000d00:	b470      	push	{r4, r5, r6}
10000d02:	9d03      	ldr	r5, [sp, #12]
10000d04:	6804      	ldr	r4, [r0, #0]
10000d06:	032d      	lsls	r5, r5, #12
10000d08:	ea45 4503 	orr.w	r5, r5, r3, lsl #16
10000d0c:	4b1b      	ldr	r3, [pc, #108]	@ (10000d7c <pll_init+0x7c>)
10000d0e:	2c00      	cmp	r4, #0
10000d10:	fbb3 f3f1 	udiv	r3, r3, r1
10000d14:	fbb2 f6f3 	udiv	r6, r2, r3
10000d18:	db1f      	blt.n	10000d5a <pll_init+0x5a>
10000d1a:	4a19      	ldr	r2, [pc, #100]	@ (10000d80 <pll_init+0x80>)
10000d1c:	4b19      	ldr	r3, [pc, #100]	@ (10000d84 <pll_init+0x84>)
10000d1e:	4290      	cmp	r0, r2
10000d20:	bf0c      	ite	eq
10000d22:	f44f 4200 	moveq.w	r2, #32768	@ 0x8000
10000d26:	f44f 4280 	movne.w	r2, #16384	@ 0x4000
10000d2a:	4c17      	ldr	r4, [pc, #92]	@ (10000d88 <pll_init+0x88>)
10000d2c:	601a      	str	r2, [r3, #0]
10000d2e:	f503 5380 	add.w	r3, r3, #4096	@ 0x1000
10000d32:	601a      	str	r2, [r3, #0]
10000d34:	68a3      	ldr	r3, [r4, #8]
10000d36:	ea32 0303 	bics.w	r3, r2, r3
10000d3a:	d1fb      	bne.n	10000d34 <pll_init+0x34>
10000d3c:	2221      	movs	r2, #33	@ 0x21
10000d3e:	f500 5340 	add.w	r3, r0, #12288	@ 0x3000
10000d42:	3304      	adds	r3, #4
10000d44:	6001      	str	r1, [r0, #0]
10000d46:	6086      	str	r6, [r0, #8]
10000d48:	601a      	str	r2, [r3, #0]
10000d4a:	6802      	ldr	r2, [r0, #0]
10000d4c:	2a00      	cmp	r2, #0
10000d4e:	dafc      	bge.n	10000d4a <pll_init+0x4a>
10000d50:	2208      	movs	r2, #8
10000d52:	60c5      	str	r5, [r0, #12]
10000d54:	601a      	str	r2, [r3, #0]
10000d56:	bc70      	pop	{r4, r5, r6}
10000d58:	4770      	bx	lr
10000d5a:	6803      	ldr	r3, [r0, #0]
10000d5c:	f003 033f 	and.w	r3, r3, #63	@ 0x3f
10000d60:	428b      	cmp	r3, r1
10000d62:	d1da      	bne.n	10000d1a <pll_init+0x1a>
10000d64:	6883      	ldr	r3, [r0, #8]
10000d66:	f3c3 030b 	ubfx	r3, r3, #0, #12
10000d6a:	42b3      	cmp	r3, r6
10000d6c:	d1d5      	bne.n	10000d1a <pll_init+0x1a>
10000d6e:	68c3      	ldr	r3, [r0, #12]
10000d70:	f403 23ee 	and.w	r3, r3, #487424	@ 0x77000
10000d74:	42ab      	cmp	r3, r5
10000d76:	d1d0      	bne.n	10000d1a <pll_init+0x1a>
10000d78:	e7ed      	b.n	10000d56 <pll_init+0x56>
10000d7a:	bf00      	nop
10000d7c:	00b71b00 	.word	0x00b71b00
10000d80:	40058000 	.word	0x40058000
10000d84:	40022000 	.word	0x40022000
10000d88:	40020000 	.word	0x40020000

10000d8c <tick_start>:
10000d8c:	2301      	movs	r3, #1
10000d8e:	eb00 0040 	add.w	r0, r0, r0, lsl #1
10000d92:	0080      	lsls	r0, r0, #2
10000d94:	f100 4080 	add.w	r0, r0, #1073741824	@ 0x40000000
10000d98:	f500 1084 	add.w	r0, r0, #1081344	@ 0x108000
10000d9c:	6041      	str	r1, [r0, #4]
10000d9e:	6003      	str	r3, [r0, #0]
10000da0:	4770      	bx	lr
10000da2:	bf00      	nop

10000da4 <rom_func_lookup>:
10000da4:	2300      	movs	r3, #0
10000da6:	8adb      	ldrh	r3, [r3, #22]
10000da8:	2200      	movs	r2, #0
10000daa:	e842 f200 	tt	r2, r2
10000dae:	0252      	lsls	r2, r2, #9
10000db0:	d401      	bmi.n	10000db6 <rom_func_lookup+0x12>
10000db2:	2110      	movs	r1, #16
10000db4:	4718      	bx	r3
10000db6:	2104      	movs	r1, #4
10000db8:	4718      	bx	r3
10000dba:	bf00      	nop

10000dbc <runtime_init_bootrom_locking_enable>:
10000dbc:	4a03      	ldr	r2, [pc, #12]	@ (10000dcc <runtime_init_bootrom_locking_enable+0x10>)
10000dbe:	f8d2 3828 	ldr.w	r3, [r2, #2088]	@ 0x828
10000dc2:	2b00      	cmp	r3, #0
10000dc4:	d0fb      	beq.n	10000dbe <runtime_init_bootrom_locking_enable+0x2>
10000dc6:	f3bf 8f5f 	dmb	sy
10000dca:	4770      	bx	lr
10000dcc:	400e0000 	.word	0x400e0000

10000dd0 <runtime_init_boot_locks_reset>:
10000dd0:	2100      	movs	r1, #0
10000dd2:	4b04      	ldr	r3, [pc, #16]	@ (10000de4 <runtime_init_boot_locks_reset+0x14>)
10000dd4:	4a04      	ldr	r2, [pc, #16]	@ (10000de8 <runtime_init_boot_locks_reset+0x18>)
10000dd6:	f3bf 8f5f 	dmb	sy
10000dda:	f843 1b04 	str.w	r1, [r3], #4
10000dde:	4293      	cmp	r3, r2
10000de0:	d1f9      	bne.n	10000dd6 <runtime_init_boot_locks_reset+0x6>
10000de2:	4770      	bx	lr
10000de4:	400e080c 	.word	0x400e080c
10000de8:	400e082c 	.word	0x400e082c

10000dec <xosc_init>:
10000dec:	b410      	push	{r4}
10000dee:	f44f 708d 	mov.w	r0, #282	@ 0x11a
10000df2:	f44f 642a 	mov.w	r4, #2720	@ 0xaa0
10000df6:	4a06      	ldr	r2, [pc, #24]	@ (10000e10 <xosc_init+0x24>)
10000df8:	4b06      	ldr	r3, [pc, #24]	@ (10000e14 <xosc_init+0x28>)
10000dfa:	4907      	ldr	r1, [pc, #28]	@ (10000e18 <xosc_init+0x2c>)
10000dfc:	6014      	str	r4, [r2, #0]
10000dfe:	60d0      	str	r0, [r2, #12]
10000e00:	6019      	str	r1, [r3, #0]
10000e02:	6853      	ldr	r3, [r2, #4]
10000e04:	2b00      	cmp	r3, #0
10000e06:	dafc      	bge.n	10000e02 <xosc_init+0x16>
10000e08:	f85d 4b04 	ldr.w	r4, [sp], #4
10000e0c:	4770      	bx	lr
10000e0e:	bf00      	nop
10000e10:	40048000 	.word	0x40048000
10000e14:	4004a000 	.word	0x4004a000
10000e18:	00fab000 	.word	0x00fab000

10000e1c <first_per_core_initializer>:
10000e1c:	4770      	bx	lr
10000e1e:	bf00      	nop

10000e20 <hard_assertion_failure>:
10000e20:	b508      	push	{r3, lr}
10000e22:	4801      	ldr	r0, [pc, #4]	@ (10000e28 <hard_assertion_failure+0x8>)
10000e24:	f7ff fa42 	bl	100002ac <panic>
10000e28:	100014f4 	.word	0x100014f4

10000e2c <runtime_run_initializers>:
10000e2c:	b538      	push	{r3, r4, r5, lr}
10000e2e:	4c05      	ldr	r4, [pc, #20]	@ (10000e44 <runtime_run_initializers+0x18>)
10000e30:	4d05      	ldr	r5, [pc, #20]	@ (10000e48 <runtime_run_initializers+0x1c>)
10000e32:	42ac      	cmp	r4, r5
10000e34:	d204      	bcs.n	10000e40 <runtime_run_initializers+0x14>
10000e36:	f854 3b04 	ldr.w	r3, [r4], #4
10000e3a:	4798      	blx	r3
10000e3c:	42ac      	cmp	r4, r5
10000e3e:	d3fa      	bcc.n	10000e36 <runtime_run_initializers+0xa>
10000e40:	bd38      	pop	{r3, r4, r5, pc}
10000e42:	bf00      	nop
10000e44:	10001478 	.word	0x10001478
10000e48:	100014b8 	.word	0x100014b8

10000e4c <runtime_init_early_resets>:
10000e4c:	b410      	push	{r4}
10000e4e:	4807      	ldr	r0, [pc, #28]	@ (10000e6c <runtime_init_early_resets+0x20>)
10000e50:	4c07      	ldr	r4, [pc, #28]	@ (10000e70 <runtime_init_early_resets+0x24>)
10000e52:	4b08      	ldr	r3, [pc, #32]	@ (10000e74 <runtime_init_early_resets+0x28>)
10000e54:	4a08      	ldr	r2, [pc, #32]	@ (10000e78 <runtime_init_early_resets+0x2c>)
10000e56:	4909      	ldr	r1, [pc, #36]	@ (10000e7c <runtime_init_early_resets+0x30>)
10000e58:	6004      	str	r4, [r0, #0]
10000e5a:	601a      	str	r2, [r3, #0]
10000e5c:	688b      	ldr	r3, [r1, #8]
10000e5e:	ea32 0303 	bics.w	r3, r2, r3
10000e62:	d1fb      	bne.n	10000e5c <runtime_init_early_resets+0x10>
10000e64:	f85d 4b04 	ldr.w	r4, [sp], #4
10000e68:	4770      	bx	lr
10000e6a:	bf00      	nop
10000e6c:	40022000 	.word	0x40022000
10000e70:	efef3b7f 	.word	0xefef3b7f
10000e74:	40023000 	.word	0x40023000
10000e78:	03f3fff6 	.word	0x03f3fff6
10000e7c:	40020000 	.word	0x40020000

10000e80 <runtime_init_usb_power_down>:
10000e80:	4b04      	ldr	r3, [pc, #16]	@ (10000e94 <runtime_init_usb_power_down+0x14>)
10000e82:	6cdb      	ldr	r3, [r3, #76]	@ 0x4c
10000e84:	f5b3 4f00 	cmp.w	r3, #32768	@ 0x8000
10000e88:	d103      	bne.n	10000e92 <runtime_init_usb_power_down+0x12>
10000e8a:	f44f 2280 	mov.w	r2, #262144	@ 0x40000
10000e8e:	4b02      	ldr	r3, [pc, #8]	@ (10000e98 <runtime_init_usb_power_down+0x18>)
10000e90:	64da      	str	r2, [r3, #76]	@ 0x4c
10000e92:	4770      	bx	lr
10000e94:	50110000 	.word	0x50110000
10000e98:	50112000 	.word	0x50112000

10000e9c <runtime_init_per_core_enable_coprocessors>:
10000e9c:	f04f 22e0 	mov.w	r2, #3758153728	@ 0xe000e000
10000ea0:	4b04      	ldr	r3, [pc, #16]	@ (10000eb4 <runtime_init_per_core_enable_coprocessors+0x18>)
10000ea2:	f8d2 1d88 	ldr.w	r1, [r2, #3464]	@ 0xd88
10000ea6:	430b      	orrs	r3, r1
10000ea8:	f8c2 3d88 	str.w	r3, [r2, #3464]	@ 0xd88
10000eac:	ee10 0430 	cfmvrdh	r0, mvd0
10000eb0:	4770      	bx	lr
10000eb2:	bf00      	nop
10000eb4:	00300303 	.word	0x00300303

10000eb8 <runtime_init_post_clock_resets>:
10000eb8:	f06f 4160 	mvn.w	r1, #3758096384	@ 0xe0000000
10000ebc:	4b04      	ldr	r3, [pc, #16]	@ (10000ed0 <runtime_init_post_clock_resets+0x18>)
10000ebe:	4a05      	ldr	r2, [pc, #20]	@ (10000ed4 <runtime_init_post_clock_resets+0x1c>)
10000ec0:	6019      	str	r1, [r3, #0]
10000ec2:	6893      	ldr	r3, [r2, #8]
10000ec4:	43db      	mvns	r3, r3
10000ec6:	f033 4360 	bics.w	r3, r3, #3758096384	@ 0xe0000000
10000eca:	d1fa      	bne.n	10000ec2 <runtime_init_post_clock_resets+0xa>
10000ecc:	4770      	bx	lr
10000ece:	bf00      	nop
10000ed0:	40023000 	.word	0x40023000
10000ed4:	40020000 	.word	0x40020000

10000ed8 <runtime_init_bootrom_reset>:
10000ed8:	b510      	push	{r4, lr}
10000eda:	f245 2053 	movw	r0, #21075	@ 0x5253
10000ede:	f7ff ff61 	bl	10000da4 <rom_func_lookup>
10000ee2:	e8bd 4010 	ldmia.w	sp!, {r4, lr}
10000ee6:	4603      	mov	r3, r0
10000ee8:	2004      	movs	r0, #4
10000eea:	4718      	bx	r3

10000eec <runtime_init_per_core_bootrom_reset>:
10000eec:	b510      	push	{r4, lr}
10000eee:	f245 2053 	movw	r0, #21075	@ 0x5253
10000ef2:	f7ff ff57 	bl	10000da4 <rom_func_lookup>
10000ef6:	e8bd 4010 	ldmia.w	sp!, {r4, lr}
10000efa:	4603      	mov	r3, r0
10000efc:	2001      	movs	r0, #1
10000efe:	4718      	bx	r3

10000f00 <runtime_init_spin_locks_reset>:
10000f00:	f7ff ba2c 	b.w	1000035c <spin_locks_reset>

10000f04 <runtime_init_install_ram_vector_table>:
10000f04:	b570      	push	{r4, r5, r6, lr}
10000f06:	4917      	ldr	r1, [pc, #92]	@ (10000f64 <runtime_init_install_ram_vector_table+0x60>)
10000f08:	4c17      	ldr	r4, [pc, #92]	@ (10000f68 <runtime_init_install_ram_vector_table+0x64>)
10000f0a:	4e18      	ldr	r6, [pc, #96]	@ (10000f6c <runtime_init_install_ram_vector_table+0x68>)
10000f0c:	1a64      	subs	r4, r4, r1
10000f0e:	10a5      	asrs	r5, r4, #2
10000f10:	2d44      	cmp	r5, #68	@ 0x44
10000f12:	462a      	mov	r2, r5
10000f14:	bf28      	it	cs
10000f16:	2244      	movcs	r2, #68	@ 0x44
10000f18:	4630      	mov	r0, r6
10000f1a:	0092      	lsls	r2, r2, #2
10000f1c:	f000 f9fc 	bl	10001318 <memcpy>
10000f20:	f5b4 7f86 	cmp.w	r4, #268	@ 0x10c
10000f24:	d81a      	bhi.n	10000f5c <runtime_init_install_ram_vector_table+0x58>
10000f26:	1c6b      	adds	r3, r5, #1
10000f28:	2b44      	cmp	r3, #68	@ 0x44
10000f2a:	f1c5 0144 	rsb	r1, r5, #68	@ 0x44
10000f2e:	4a10      	ldr	r2, [pc, #64]	@ (10000f70 <runtime_init_install_ram_vector_table+0x6c>)
10000f30:	bf88      	it	hi
10000f32:	2101      	movhi	r1, #1
10000f34:	d810      	bhi.n	10000f58 <runtime_init_install_ram_vector_table+0x54>
10000f36:	f5b4 7f86 	cmp.w	r4, #268	@ 0x10c
10000f3a:	d00d      	beq.n	10000f58 <runtime_init_install_ram_vector_table+0x54>
10000f3c:	1933      	adds	r3, r6, r4
10000f3e:	0848      	lsrs	r0, r1, #1
10000f40:	eb03 00c0 	add.w	r0, r3, r0, lsl #3
10000f44:	601a      	str	r2, [r3, #0]
10000f46:	605a      	str	r2, [r3, #4]
10000f48:	3308      	adds	r3, #8
10000f4a:	4283      	cmp	r3, r0
10000f4c:	d1fa      	bne.n	10000f44 <runtime_init_install_ram_vector_table+0x40>
10000f4e:	07cb      	lsls	r3, r1, #31
10000f50:	d504      	bpl.n	10000f5c <runtime_init_install_ram_vector_table+0x58>
10000f52:	f021 0101 	bic.w	r1, r1, #1
10000f56:	440d      	add	r5, r1
10000f58:	f846 2025 	str.w	r2, [r6, r5, lsl #2]
10000f5c:	4b05      	ldr	r3, [pc, #20]	@ (10000f74 <runtime_init_install_ram_vector_table+0x70>)
10000f5e:	609e      	str	r6, [r3, #8]
10000f60:	bd70      	pop	{r4, r5, r6, pc}
10000f62:	bf00      	nop
10000f64:	10000000 	.word	0x10000000
10000f68:	10000110 	.word	0x10000110
10000f6c:	20000000 	.word	0x20000000
10000f70:	10000111 	.word	0x10000111
10000f74:	e000ed00 	.word	0xe000ed00

10000f78 <runtime_init_clocks>:
10000f78:	2300      	movs	r3, #0
10000f7a:	b5f0      	push	{r4, r5, r6, r7, lr}
10000f7c:	4c2b      	ldr	r4, [pc, #172]	@ (1000102c <runtime_init_clocks+0xb4>)
10000f7e:	b083      	sub	sp, #12
10000f80:	f8c4 3084 	str.w	r3, [r4, #132]	@ 0x84
10000f84:	f7ff ff32 	bl	10000dec <xosc_init>
10000f88:	2201      	movs	r2, #1
10000f8a:	4b29      	ldr	r3, [pc, #164]	@ (10001030 <runtime_init_clocks+0xb8>)
10000f8c:	63da      	str	r2, [r3, #60]	@ 0x3c
10000f8e:	6c63      	ldr	r3, [r4, #68]	@ 0x44
10000f90:	2b01      	cmp	r3, #1
10000f92:	d1fc      	bne.n	10000f8e <runtime_init_clocks+0x16>
10000f94:	2103      	movs	r1, #3
10000f96:	4a26      	ldr	r2, [pc, #152]	@ (10001030 <runtime_init_clocks+0xb8>)
10000f98:	4b24      	ldr	r3, [pc, #144]	@ (1000102c <runtime_init_clocks+0xb4>)
10000f9a:	6311      	str	r1, [r2, #48]	@ 0x30
10000f9c:	6b9d      	ldr	r5, [r3, #56]	@ 0x38
10000f9e:	2d01      	cmp	r5, #1
10000fa0:	d1fc      	bne.n	10000f9c <runtime_init_clocks+0x24>
10000fa2:	2305      	movs	r3, #5
10000fa4:	2702      	movs	r7, #2
10000fa6:	461e      	mov	r6, r3
10000fa8:	2400      	movs	r4, #0
10000faa:	4629      	mov	r1, r5
10000fac:	4a21      	ldr	r2, [pc, #132]	@ (10001034 <runtime_init_clocks+0xbc>)
10000fae:	4822      	ldr	r0, [pc, #136]	@ (10001038 <runtime_init_clocks+0xc0>)
10000fb0:	9700      	str	r7, [sp, #0]
10000fb2:	f7ff fea5 	bl	10000d00 <pll_init>
10000fb6:	4629      	mov	r1, r5
10000fb8:	4633      	mov	r3, r6
10000fba:	4a20      	ldr	r2, [pc, #128]	@ (1000103c <runtime_init_clocks+0xc4>)
10000fbc:	4820      	ldr	r0, [pc, #128]	@ (10001040 <runtime_init_clocks+0xc8>)
10000fbe:	9600      	str	r6, [sp, #0]
10000fc0:	f7ff fe9e 	bl	10000d00 <pll_init>
10000fc4:	4639      	mov	r1, r7
10000fc6:	4622      	mov	r2, r4
10000fc8:	2004      	movs	r0, #4
10000fca:	4b1e      	ldr	r3, [pc, #120]	@ (10001044 <runtime_init_clocks+0xcc>)
10000fcc:	f7ff fe2c 	bl	10000c28 <clock_configure_undivided>
10000fd0:	4629      	mov	r1, r5
10000fd2:	4622      	mov	r2, r4
10000fd4:	4630      	mov	r0, r6
10000fd6:	4b1c      	ldr	r3, [pc, #112]	@ (10001048 <runtime_init_clocks+0xd0>)
10000fd8:	f7ff fe26 	bl	10000c28 <clock_configure_undivided>
10000fdc:	4622      	mov	r2, r4
10000fde:	2008      	movs	r0, #8
10000fe0:	4621      	mov	r1, r4
10000fe2:	4b1a      	ldr	r3, [pc, #104]	@ (1000104c <runtime_init_clocks+0xd4>)
10000fe4:	f7ff fe20 	bl	10000c28 <clock_configure_undivided>
10000fe8:	4622      	mov	r2, r4
10000fea:	2009      	movs	r0, #9
10000fec:	4621      	mov	r1, r4
10000fee:	4b17      	ldr	r3, [pc, #92]	@ (1000104c <runtime_init_clocks+0xd4>)
10000ff0:	f7ff fe1a 	bl	10000c28 <clock_configure_undivided>
10000ff4:	4622      	mov	r2, r4
10000ff6:	2006      	movs	r0, #6
10000ff8:	4621      	mov	r1, r4
10000ffa:	4b13      	ldr	r3, [pc, #76]	@ (10001048 <runtime_init_clocks+0xd0>)
10000ffc:	f7ff fe14 	bl	10000c28 <clock_configure_undivided>
10001000:	4b11      	ldr	r3, [pc, #68]	@ (10001048 <runtime_init_clocks+0xd0>)
10001002:	4622      	mov	r2, r4
10001004:	2007      	movs	r0, #7
10001006:	4621      	mov	r1, r4
10001008:	f7ff fe0e 	bl	10000c28 <clock_configure_undivided>
1000100c:	2004      	movs	r0, #4
1000100e:	f7ff fe71 	bl	10000cf4 <clock_get_hz>
10001012:	4b0f      	ldr	r3, [pc, #60]	@ (10001050 <runtime_init_clocks+0xd8>)
10001014:	fba3 3500 	umull	r3, r5, r3, r0
10001018:	0cad      	lsrs	r5, r5, #18
1000101a:	b2e0      	uxtb	r0, r4
1000101c:	4629      	mov	r1, r5
1000101e:	3401      	adds	r4, #1
10001020:	f7ff feb4 	bl	10000d8c <tick_start>
10001024:	2c06      	cmp	r4, #6
10001026:	d1f8      	bne.n	1000101a <runtime_init_clocks+0xa2>
10001028:	b003      	add	sp, #12
1000102a:	bdf0      	pop	{r4, r5, r6, r7, pc}
1000102c:	40010000 	.word	0x40010000
10001030:	40013000 	.word	0x40013000
10001034:	59682f00 	.word	0x59682f00
10001038:	40050000 	.word	0x40050000
1000103c:	47868c00 	.word	0x47868c00
10001040:	40058000 	.word	0x40058000
10001044:	00b71b00 	.word	0x00b71b00
10001048:	08f0d180 	.word	0x08f0d180
1000104c:	02dc6c00 	.word	0x02dc6c00
10001050:	431bde83 	.word	0x431bde83

10001054 <_out_char>:
10001054:	b900      	cbnz	r0, 10001058 <_out_char+0x4>
10001056:	4770      	bx	lr
10001058:	f000 b8fe 	b.w	10001258 <__wrap_putchar>

1000105c <weak_raw_vprintf>:
1000105c:	b510      	push	{r4, lr}
1000105e:	4b09      	ldr	r3, [pc, #36]	@ (10001084 <weak_raw_vprintf+0x28>)
10001060:	b084      	sub	sp, #16
10001062:	681c      	ldr	r4, [r3, #0]
10001064:	b14c      	cbz	r4, 1000107a <weak_raw_vprintf+0x1e>
10001066:	4603      	mov	r3, r0
10001068:	9100      	str	r1, [sp, #0]
1000106a:	f04f 32ff 	mov.w	r2, #4294967295
1000106e:	a903      	add	r1, sp, #12
10001070:	4805      	ldr	r0, [pc, #20]	@ (10001088 <weak_raw_vprintf+0x2c>)
10001072:	47a0      	blx	r4
10001074:	2001      	movs	r0, #1
10001076:	b004      	add	sp, #16
10001078:	bd10      	pop	{r4, pc}
1000107a:	f000 f92f 	bl	100012dc <__wrap_puts>
1000107e:	4620      	mov	r0, r4
10001080:	b004      	add	sp, #16
10001082:	bd10      	pop	{r4, pc}
10001084:	2000042c 	.word	0x2000042c
10001088:	10001055 	.word	0x10001055

1000108c <_exit>:
1000108c:	be00      	bkpt	0x0000
1000108e:	e7fd      	b.n	1000108c <_exit>

10001090 <exit>:
10001090:	b508      	push	{r3, lr}
10001092:	f7ff fffb 	bl	1000108c <_exit>
10001096:	bf00      	nop

10001098 <runtime_init>:
10001098:	b538      	push	{r3, r4, r5, lr}
1000109a:	4d06      	ldr	r5, [pc, #24]	@ (100010b4 <runtime_init+0x1c>)
1000109c:	4c06      	ldr	r4, [pc, #24]	@ (100010b8 <runtime_init+0x20>)
1000109e:	f7ff fec5 	bl	10000e2c <runtime_run_initializers>
100010a2:	42ac      	cmp	r4, r5
100010a4:	d204      	bcs.n	100010b0 <runtime_init+0x18>
100010a6:	f854 3b04 	ldr.w	r3, [r4], #4
100010aa:	4798      	blx	r3
100010ac:	42ac      	cmp	r4, r5
100010ae:	d3fa      	bcc.n	100010a6 <runtime_init+0xe>
100010b0:	bd38      	pop	{r3, r4, r5, pc}
100010b2:	bf00      	nop
100010b4:	100014bc 	.word	0x100014bc
100010b8:	100014b8 	.word	0x100014b8

100010bc <stdio_out_chars_no_crlf>:
100010bc:	6803      	ldr	r3, [r0, #0]
100010be:	4608      	mov	r0, r1
100010c0:	4611      	mov	r1, r2
100010c2:	4718      	bx	r3

100010c4 <stdio_out_chars_crlf>:
100010c4:	7d43      	ldrb	r3, [r0, #21]
100010c6:	e92d 47f0 	stmdb	sp!, {r4, r5, r6, r7, r8, r9, sl, lr}
100010ca:	4607      	mov	r7, r0
100010cc:	4689      	mov	r9, r1
100010ce:	4616      	mov	r6, r2
100010d0:	2b00      	cmp	r3, #0
100010d2:	d040      	beq.n	10001156 <stdio_out_chars_crlf+0x92>
100010d4:	2a00      	cmp	r2, #0
100010d6:	dd39      	ble.n	1000114c <stdio_out_chars_crlf+0x88>
100010d8:	2100      	movs	r1, #0
100010da:	f109 35ff 	add.w	r5, r9, #4294967295
100010de:	f815 2f01 	ldrb.w	r2, [r5, #1]!
100010e2:	7d03      	ldrb	r3, [r0, #20]
100010e4:	2a0a      	cmp	r2, #10
100010e6:	4608      	mov	r0, r1
100010e8:	f8df 8078 	ldr.w	r8, [pc, #120]	@ 10001164 <stdio_out_chars_crlf+0xa0>
100010ec:	f101 0401 	add.w	r4, r1, #1
100010f0:	d00e      	beq.n	10001110 <stdio_out_chars_crlf+0x4c>
100010f2:	42a6      	cmp	r6, r4
100010f4:	d01b      	beq.n	1000112e <stdio_out_chars_crlf+0x6a>
100010f6:	782b      	ldrb	r3, [r5, #0]
100010f8:	4621      	mov	r1, r4
100010fa:	f1a3 030d 	sub.w	r3, r3, #13
100010fe:	fab3 f383 	clz	r3, r3
10001102:	f815 2f01 	ldrb.w	r2, [r5, #1]!
10001106:	095b      	lsrs	r3, r3, #5
10001108:	2a0a      	cmp	r2, #10
1000110a:	f101 0401 	add.w	r4, r1, #1
1000110e:	d1f0      	bne.n	100010f2 <stdio_out_chars_crlf+0x2e>
10001110:	2b00      	cmp	r3, #0
10001112:	d1ee      	bne.n	100010f2 <stdio_out_chars_crlf+0x2e>
10001114:	4288      	cmp	r0, r1
10001116:	eba1 0100 	sub.w	r1, r1, r0
1000111a:	4448      	add	r0, r9
1000111c:	db18      	blt.n	10001150 <stdio_out_chars_crlf+0x8c>
1000111e:	2102      	movs	r1, #2
10001120:	4640      	mov	r0, r8
10001122:	683b      	ldr	r3, [r7, #0]
10001124:	4798      	blx	r3
10001126:	42a6      	cmp	r6, r4
10001128:	d007      	beq.n	1000113a <stdio_out_chars_crlf+0x76>
1000112a:	4620      	mov	r0, r4
1000112c:	e7e3      	b.n	100010f6 <stdio_out_chars_crlf+0x32>
1000112e:	4286      	cmp	r6, r0
10001130:	dd03      	ble.n	1000113a <stdio_out_chars_crlf+0x76>
10001132:	1a31      	subs	r1, r6, r0
10001134:	683b      	ldr	r3, [r7, #0]
10001136:	4448      	add	r0, r9
10001138:	4798      	blx	r3
1000113a:	44b1      	add	r9, r6
1000113c:	f819 3c01 	ldrb.w	r3, [r9, #-1]
10001140:	f1a3 030d 	sub.w	r3, r3, #13
10001144:	fab3 f383 	clz	r3, r3
10001148:	095b      	lsrs	r3, r3, #5
1000114a:	753b      	strb	r3, [r7, #20]
1000114c:	e8bd 87f0 	ldmia.w	sp!, {r4, r5, r6, r7, r8, r9, sl, pc}
10001150:	683b      	ldr	r3, [r7, #0]
10001152:	4798      	blx	r3
10001154:	e7e3      	b.n	1000111e <stdio_out_chars_crlf+0x5a>
10001156:	4648      	mov	r0, r9
10001158:	683b      	ldr	r3, [r7, #0]
1000115a:	4611      	mov	r1, r2
1000115c:	e8bd 47f0 	ldmia.w	sp!, {r4, r5, r6, r7, r8, r9, sl, lr}
10001160:	4718      	bx	r3
10001162:	bf00      	nop
10001164:	10001598 	.word	0x10001598

10001168 <stdio_put_string>:
10001168:	e92d 47f0 	stmdb	sp!, {r4, r5, r6, r7, r8, r9, sl, lr}
1000116c:	b082      	sub	sp, #8
1000116e:	460d      	mov	r5, r1
10001170:	4692      	mov	sl, r2
10001172:	4699      	mov	r9, r3
10001174:	4607      	mov	r7, r0
10001176:	f7ff fd3b 	bl	10000bf0 <time_us_64>
1000117a:	f04f 36ff 	mov.w	r6, #4294967295
1000117e:	f06f 4400 	mvn.w	r4, #2147483648	@ 0x80000000
10001182:	4a2f      	ldr	r2, [pc, #188]	@ (10001240 <stdio_put_string+0xd8>)
10001184:	1882      	adds	r2, r0, r2
10001186:	f141 0300 	adc.w	r3, r1, #0
1000118a:	4296      	cmp	r6, r2
1000118c:	eb74 0103 	sbcs.w	r1, r4, r3
10001190:	bf3c      	itt	cc
10001192:	4632      	movcc	r2, r6
10001194:	4623      	movcc	r3, r4
10001196:	482b      	ldr	r0, [pc, #172]	@ (10001244 <stdio_put_string+0xdc>)
10001198:	f000 f96a 	bl	10001470 <__mutex_try_enter_block_until_veneer>
1000119c:	1c6b      	adds	r3, r5, #1
1000119e:	4680      	mov	r8, r0
100011a0:	d103      	bne.n	100011aa <stdio_put_string+0x42>
100011a2:	4638      	mov	r0, r7
100011a4:	f000 f92e 	bl	10001404 <strlen>
100011a8:	4605      	mov	r5, r0
100011aa:	4b27      	ldr	r3, [pc, #156]	@ (10001248 <stdio_put_string+0xe0>)
100011ac:	4e27      	ldr	r6, [pc, #156]	@ (1000124c <stdio_put_string+0xe4>)
100011ae:	681c      	ldr	r4, [r3, #0]
100011b0:	4b27      	ldr	r3, [pc, #156]	@ (10001250 <stdio_put_string+0xe8>)
100011b2:	f1b9 0f00 	cmp.w	r9, #0
100011b6:	bf18      	it	ne
100011b8:	461e      	movne	r6, r3
100011ba:	b1b4      	cbz	r4, 100011ea <stdio_put_string+0x82>
100011bc:	f1ba 0f00 	cmp.w	sl, #0
100011c0:	d11a      	bne.n	100011f8 <stdio_put_string+0x90>
100011c2:	f8df 9090 	ldr.w	r9, [pc, #144]	@ 10001254 <stdio_put_string+0xec>
100011c6:	e001      	b.n	100011cc <stdio_put_string+0x64>
100011c8:	6924      	ldr	r4, [r4, #16]
100011ca:	b174      	cbz	r4, 100011ea <stdio_put_string+0x82>
100011cc:	6823      	ldr	r3, [r4, #0]
100011ce:	2b00      	cmp	r3, #0
100011d0:	d0fa      	beq.n	100011c8 <stdio_put_string+0x60>
100011d2:	f8d9 3000 	ldr.w	r3, [r9]
100011d6:	b10b      	cbz	r3, 100011dc <stdio_put_string+0x74>
100011d8:	42a3      	cmp	r3, r4
100011da:	d1f5      	bne.n	100011c8 <stdio_put_string+0x60>
100011dc:	4620      	mov	r0, r4
100011de:	462a      	mov	r2, r5
100011e0:	4639      	mov	r1, r7
100011e2:	47b0      	blx	r6
100011e4:	6924      	ldr	r4, [r4, #16]
100011e6:	2c00      	cmp	r4, #0
100011e8:	d1f0      	bne.n	100011cc <stdio_put_string+0x64>
100011ea:	f1b8 0f00 	cmp.w	r8, #0
100011ee:	d11f      	bne.n	10001230 <stdio_put_string+0xc8>
100011f0:	4628      	mov	r0, r5
100011f2:	b002      	add	sp, #8
100011f4:	e8bd 87f0 	ldmia.w	sp!, {r4, r5, r6, r7, r8, r9, sl, pc}
100011f8:	f04f 0a0a 	mov.w	sl, #10
100011fc:	f8df 9054 	ldr.w	r9, [pc, #84]	@ 10001254 <stdio_put_string+0xec>
10001200:	e002      	b.n	10001208 <stdio_put_string+0xa0>
10001202:	6924      	ldr	r4, [r4, #16]
10001204:	2c00      	cmp	r4, #0
10001206:	d0f0      	beq.n	100011ea <stdio_put_string+0x82>
10001208:	6823      	ldr	r3, [r4, #0]
1000120a:	2b00      	cmp	r3, #0
1000120c:	d0f9      	beq.n	10001202 <stdio_put_string+0x9a>
1000120e:	f8d9 3000 	ldr.w	r3, [r9]
10001212:	b10b      	cbz	r3, 10001218 <stdio_put_string+0xb0>
10001214:	42a3      	cmp	r3, r4
10001216:	d1f4      	bne.n	10001202 <stdio_put_string+0x9a>
10001218:	4620      	mov	r0, r4
1000121a:	462a      	mov	r2, r5
1000121c:	4639      	mov	r1, r7
1000121e:	47b0      	blx	r6
10001220:	4620      	mov	r0, r4
10001222:	2201      	movs	r2, #1
10001224:	f10d 0107 	add.w	r1, sp, #7
10001228:	f88d a007 	strb.w	sl, [sp, #7]
1000122c:	47b0      	blx	r6
1000122e:	e7e8      	b.n	10001202 <stdio_put_string+0x9a>
10001230:	4804      	ldr	r0, [pc, #16]	@ (10001244 <stdio_put_string+0xdc>)
10001232:	f000 f919 	bl	10001468 <__mutex_exit_veneer>
10001236:	4628      	mov	r0, r5
10001238:	b002      	add	sp, #8
1000123a:	e8bd 87f0 	ldmia.w	sp!, {r4, r5, r6, r7, r8, r9, sl, pc}
1000123e:	bf00      	nop
10001240:	000f4240 	.word	0x000f4240
10001244:	2000024c 	.word	0x2000024c
10001248:	20000424 	.word	0x20000424
1000124c:	100010bd 	.word	0x100010bd
10001250:	100010c5 	.word	0x100010c5
10001254:	20000428 	.word	0x20000428

10001258 <__wrap_putchar>:
10001258:	b5f0      	push	{r4, r5, r6, r7, lr}
1000125a:	b083      	sub	sp, #12
1000125c:	4606      	mov	r6, r0
1000125e:	f88d 0007 	strb.w	r0, [sp, #7]
10001262:	f7ff fcc5 	bl	10000bf0 <time_us_64>
10001266:	f04f 35ff 	mov.w	r5, #4294967295
1000126a:	f06f 4400 	mvn.w	r4, #2147483648	@ 0x80000000
1000126e:	4a17      	ldr	r2, [pc, #92]	@ (100012cc <__wrap_putchar+0x74>)
10001270:	1882      	adds	r2, r0, r2
10001272:	f141 0300 	adc.w	r3, r1, #0
10001276:	4295      	cmp	r5, r2
10001278:	eb74 0103 	sbcs.w	r1, r4, r3
1000127c:	bf3c      	itt	cc
1000127e:	4623      	movcc	r3, r4
10001280:	462a      	movcc	r2, r5
10001282:	4813      	ldr	r0, [pc, #76]	@ (100012d0 <__wrap_putchar+0x78>)
10001284:	f000 f8f4 	bl	10001470 <__mutex_try_enter_block_until_veneer>
10001288:	4b12      	ldr	r3, [pc, #72]	@ (100012d4 <__wrap_putchar+0x7c>)
1000128a:	4607      	mov	r7, r0
1000128c:	681c      	ldr	r4, [r3, #0]
1000128e:	b19c      	cbz	r4, 100012b8 <__wrap_putchar+0x60>
10001290:	4d11      	ldr	r5, [pc, #68]	@ (100012d8 <__wrap_putchar+0x80>)
10001292:	e001      	b.n	10001298 <__wrap_putchar+0x40>
10001294:	6924      	ldr	r4, [r4, #16]
10001296:	b17c      	cbz	r4, 100012b8 <__wrap_putchar+0x60>
10001298:	6823      	ldr	r3, [r4, #0]
1000129a:	2b00      	cmp	r3, #0
1000129c:	d0fa      	beq.n	10001294 <__wrap_putchar+0x3c>
1000129e:	682b      	ldr	r3, [r5, #0]
100012a0:	b10b      	cbz	r3, 100012a6 <__wrap_putchar+0x4e>
100012a2:	42a3      	cmp	r3, r4
100012a4:	d1f6      	bne.n	10001294 <__wrap_putchar+0x3c>
100012a6:	4620      	mov	r0, r4
100012a8:	2201      	movs	r2, #1
100012aa:	f10d 0107 	add.w	r1, sp, #7
100012ae:	f7ff ff09 	bl	100010c4 <stdio_out_chars_crlf>
100012b2:	6924      	ldr	r4, [r4, #16]
100012b4:	2c00      	cmp	r4, #0
100012b6:	d1ef      	bne.n	10001298 <__wrap_putchar+0x40>
100012b8:	b917      	cbnz	r7, 100012c0 <__wrap_putchar+0x68>
100012ba:	4630      	mov	r0, r6
100012bc:	b003      	add	sp, #12
100012be:	bdf0      	pop	{r4, r5, r6, r7, pc}
100012c0:	4803      	ldr	r0, [pc, #12]	@ (100012d0 <__wrap_putchar+0x78>)
100012c2:	f000 f8d1 	bl	10001468 <__mutex_exit_veneer>
100012c6:	4630      	mov	r0, r6
100012c8:	b003      	add	sp, #12
100012ca:	bdf0      	pop	{r4, r5, r6, r7, pc}
100012cc:	000f4240 	.word	0x000f4240
100012d0:	2000024c 	.word	0x2000024c
100012d4:	20000424 	.word	0x20000424
100012d8:	20000428 	.word	0x20000428

100012dc <__wrap_puts>:
100012dc:	b538      	push	{r3, r4, r5, lr}
100012de:	4604      	mov	r4, r0
100012e0:	f000 f890 	bl	10001404 <strlen>
100012e4:	2301      	movs	r3, #1
100012e6:	4605      	mov	r5, r0
100012e8:	461a      	mov	r2, r3
100012ea:	4620      	mov	r0, r4
100012ec:	4629      	mov	r1, r5
100012ee:	f7ff ff3b 	bl	10001168 <stdio_put_string>
100012f2:	4b08      	ldr	r3, [pc, #32]	@ (10001314 <__wrap_puts+0x38>)
100012f4:	681c      	ldr	r4, [r3, #0]
100012f6:	b12c      	cbz	r4, 10001304 <__wrap_puts+0x28>
100012f8:	6863      	ldr	r3, [r4, #4]
100012fa:	b12b      	cbz	r3, 10001308 <__wrap_puts+0x2c>
100012fc:	4798      	blx	r3
100012fe:	6924      	ldr	r4, [r4, #16]
10001300:	2c00      	cmp	r4, #0
10001302:	d1f9      	bne.n	100012f8 <__wrap_puts+0x1c>
10001304:	4628      	mov	r0, r5
10001306:	bd38      	pop	{r3, r4, r5, pc}
10001308:	6924      	ldr	r4, [r4, #16]
1000130a:	2c00      	cmp	r4, #0
1000130c:	d1f4      	bne.n	100012f8 <__wrap_puts+0x1c>
1000130e:	4628      	mov	r0, r5
10001310:	bd38      	pop	{r3, r4, r5, pc}
10001312:	bf00      	nop
10001314:	20000424 	.word	0x20000424

10001318 <memcpy>:
10001318:	4684      	mov	ip, r0
1000131a:	ea41 0300 	orr.w	r3, r1, r0
1000131e:	f013 0303 	ands.w	r3, r3, #3
10001322:	d149      	bne.n	100013b8 <memcpy+0xa0>
10001324:	3a40      	subs	r2, #64	@ 0x40
10001326:	d323      	bcc.n	10001370 <memcpy+0x58>
10001328:	680b      	ldr	r3, [r1, #0]
1000132a:	6003      	str	r3, [r0, #0]
1000132c:	684b      	ldr	r3, [r1, #4]
1000132e:	6043      	str	r3, [r0, #4]
10001330:	688b      	ldr	r3, [r1, #8]
10001332:	6083      	str	r3, [r0, #8]
10001334:	68cb      	ldr	r3, [r1, #12]
10001336:	60c3      	str	r3, [r0, #12]
10001338:	690b      	ldr	r3, [r1, #16]
1000133a:	6103      	str	r3, [r0, #16]
1000133c:	694b      	ldr	r3, [r1, #20]
1000133e:	6143      	str	r3, [r0, #20]
10001340:	698b      	ldr	r3, [r1, #24]
10001342:	6183      	str	r3, [r0, #24]
10001344:	69cb      	ldr	r3, [r1, #28]
10001346:	61c3      	str	r3, [r0, #28]
10001348:	6a0b      	ldr	r3, [r1, #32]
1000134a:	6203      	str	r3, [r0, #32]
1000134c:	6a4b      	ldr	r3, [r1, #36]	@ 0x24
1000134e:	6243      	str	r3, [r0, #36]	@ 0x24
10001350:	6a8b      	ldr	r3, [r1, #40]	@ 0x28
10001352:	6283      	str	r3, [r0, #40]	@ 0x28
10001354:	6acb      	ldr	r3, [r1, #44]	@ 0x2c
10001356:	62c3      	str	r3, [r0, #44]	@ 0x2c
10001358:	6b0b      	ldr	r3, [r1, #48]	@ 0x30
1000135a:	6303      	str	r3, [r0, #48]	@ 0x30
1000135c:	6b4b      	ldr	r3, [r1, #52]	@ 0x34
1000135e:	6343      	str	r3, [r0, #52]	@ 0x34
10001360:	6b8b      	ldr	r3, [r1, #56]	@ 0x38
10001362:	6383      	str	r3, [r0, #56]	@ 0x38
10001364:	6bcb      	ldr	r3, [r1, #60]	@ 0x3c
10001366:	63c3      	str	r3, [r0, #60]	@ 0x3c
10001368:	3040      	adds	r0, #64	@ 0x40
1000136a:	3140      	adds	r1, #64	@ 0x40
1000136c:	3a40      	subs	r2, #64	@ 0x40
1000136e:	d2db      	bcs.n	10001328 <memcpy+0x10>
10001370:	3230      	adds	r2, #48	@ 0x30
10001372:	d30b      	bcc.n	1000138c <memcpy+0x74>
10001374:	680b      	ldr	r3, [r1, #0]
10001376:	6003      	str	r3, [r0, #0]
10001378:	684b      	ldr	r3, [r1, #4]
1000137a:	6043      	str	r3, [r0, #4]
1000137c:	688b      	ldr	r3, [r1, #8]
1000137e:	6083      	str	r3, [r0, #8]
10001380:	68cb      	ldr	r3, [r1, #12]
10001382:	60c3      	str	r3, [r0, #12]
10001384:	3010      	adds	r0, #16
10001386:	3110      	adds	r1, #16
10001388:	3a10      	subs	r2, #16
1000138a:	d2f3      	bcs.n	10001374 <memcpy+0x5c>
1000138c:	320c      	adds	r2, #12
1000138e:	d305      	bcc.n	1000139c <memcpy+0x84>
10001390:	f851 3b04 	ldr.w	r3, [r1], #4
10001394:	f840 3b04 	str.w	r3, [r0], #4
10001398:	3a04      	subs	r2, #4
1000139a:	d2f9      	bcs.n	10001390 <memcpy+0x78>
1000139c:	3204      	adds	r2, #4
1000139e:	d008      	beq.n	100013b2 <memcpy+0x9a>
100013a0:	07d2      	lsls	r2, r2, #31
100013a2:	bf1c      	itt	ne
100013a4:	f811 3b01 	ldrbne.w	r3, [r1], #1
100013a8:	f800 3b01 	strbne.w	r3, [r0], #1
100013ac:	d301      	bcc.n	100013b2 <memcpy+0x9a>
100013ae:	880b      	ldrh	r3, [r1, #0]
100013b0:	8003      	strh	r3, [r0, #0]
100013b2:	4660      	mov	r0, ip
100013b4:	4770      	bx	lr
100013b6:	bf00      	nop
100013b8:	2a08      	cmp	r2, #8
100013ba:	d313      	bcc.n	100013e4 <memcpy+0xcc>
100013bc:	078b      	lsls	r3, r1, #30
100013be:	d0b1      	beq.n	10001324 <memcpy+0xc>
100013c0:	f010 0303 	ands.w	r3, r0, #3
100013c4:	d0ae      	beq.n	10001324 <memcpy+0xc>
100013c6:	f1c3 0304 	rsb	r3, r3, #4
100013ca:	1ad2      	subs	r2, r2, r3
100013cc:	07db      	lsls	r3, r3, #31
100013ce:	bf1c      	itt	ne
100013d0:	f811 3b01 	ldrbne.w	r3, [r1], #1
100013d4:	f800 3b01 	strbne.w	r3, [r0], #1
100013d8:	d3a4      	bcc.n	10001324 <memcpy+0xc>
100013da:	f831 3b02 	ldrh.w	r3, [r1], #2
100013de:	f820 3b02 	strh.w	r3, [r0], #2
100013e2:	e79f      	b.n	10001324 <memcpy+0xc>
100013e4:	3a04      	subs	r2, #4
100013e6:	d3d9      	bcc.n	1000139c <memcpy+0x84>
100013e8:	3a01      	subs	r2, #1
100013ea:	f811 3b01 	ldrb.w	r3, [r1], #1
100013ee:	f800 3b01 	strb.w	r3, [r0], #1
100013f2:	d2f9      	bcs.n	100013e8 <memcpy+0xd0>
100013f4:	780b      	ldrb	r3, [r1, #0]
100013f6:	7003      	strb	r3, [r0, #0]
100013f8:	784b      	ldrb	r3, [r1, #1]
100013fa:	7043      	strb	r3, [r0, #1]
100013fc:	788b      	ldrb	r3, [r1, #2]
100013fe:	7083      	strb	r3, [r0, #2]
10001400:	4660      	mov	r0, ip
10001402:	4770      	bx	lr

10001404 <strlen>:
10001404:	f020 0103 	bic.w	r1, r0, #3
10001408:	f010 0003 	ands.w	r0, r0, #3
1000140c:	f1c0 0000 	rsb	r0, r0, #0
10001410:	f851 3b04 	ldr.w	r3, [r1], #4
10001414:	f100 0c04 	add.w	ip, r0, #4
10001418:	ea4f 0ccc 	mov.w	ip, ip, lsl #3
1000141c:	f06f 0200 	mvn.w	r2, #0
10001420:	bf1c      	itt	ne
10001422:	fa22 f20c 	lsrne.w	r2, r2, ip
10001426:	4313      	orrne	r3, r2
10001428:	f04f 0c01 	mov.w	ip, #1
1000142c:	ea4c 2c0c 	orr.w	ip, ip, ip, lsl #8
10001430:	ea4c 4c0c 	orr.w	ip, ip, ip, lsl #16
10001434:	eba3 020c 	sub.w	r2, r3, ip
10001438:	ea22 0203 	bic.w	r2, r2, r3
1000143c:	ea12 12cc 	ands.w	r2, r2, ip, lsl #7
10001440:	bf04      	itt	eq
10001442:	f851 3b04 	ldreq.w	r3, [r1], #4
10001446:	3004      	addeq	r0, #4
10001448:	d0f4      	beq.n	10001434 <strlen+0x30>
1000144a:	f1c2 0100 	rsb	r1, r2, #0
1000144e:	ea02 0201 	and.w	r2, r2, r1
10001452:	fab2 f282 	clz	r2, r2
10001456:	f1c2 021f 	rsb	r2, r2, #31
1000145a:	eb00 00d2 	add.w	r0, r0, r2, lsr #3
1000145e:	4770      	bx	lr

10001460 <_fini>:
10001460:	b5f8      	push	{r3, r4, r5, r6, r7, lr}
10001462:	bf00      	nop
10001464:	0000      	movs	r0, r0
	...

10001468 <__mutex_exit_veneer>:
10001468:	f85f f000 	ldr.w	pc, [pc]	@ 1000146c <__mutex_exit_veneer+0x4>
1000146c:	200001ed 	.word	0x200001ed

10001470 <__mutex_try_enter_block_until_veneer>:
10001470:	f85f f000 	ldr.w	pc, [pc]	@ 10001474 <__mutex_try_enter_block_until_veneer+0x4>
10001474:	20000181 	.word	0x20000181

10001478 <__pre_init_runtime_init_bootrom_reset>:
10001478:	10000ed9                                ....

1000147c <__pre_init_runtime_init_early_resets>:
1000147c:	10000e4d                                M...

10001480 <__pre_init_runtime_init_usb_power_down>:
10001480:	10000e81                                ....

10001484 <__pre_init_runtime_init_clocks>:
10001484:	10000f79                                y...

10001488 <__pre_init_runtime_init_post_clock_resets>:
10001488:	10000eb9                                ....

1000148c <__pre_init_runtime_init_boot_locks_reset>:
1000148c:	10000dd1                                ....

10001490 <__pre_init_runtime_init_spin_locks_reset>:
10001490:	10000f01                                ....

10001494 <__pre_init_runtime_init_bootrom_locking_enable>:
10001494:	10000dbd                                ....

10001498 <__pre_init_runtime_init_mutex>:
10001498:	1000044d                                M...

1000149c <__pre_init_runtime_init_install_ram_vector_table>:
1000149c:	10000f05                                ....

100014a0 <__pre_init_runtime_init_default_alarm_pool>:
100014a0:	100007d1                                ....

100014a4 <__pre_init_first_per_core_initializer>:
100014a4:	10000e1d                                ....

100014a8 <__pre_init_runtime_init_per_core_bootrom_reset>:
100014a8:	10000eed                                ....

100014ac <__pre_init_runtime_init_per_core_enable_coprocessors>:
100014ac:	10000e9d                                ....

100014b0 <__pre_init_spinlock_set_extexclall>:
100014b0:	1000034d                                M...

100014b4 <__pre_init_runtime_init_per_core_irq_priorities>:
100014b4:	10000375                                u...

100014b8 <__frame_dummy_init_array_entry>:
100014b8:	10000211                                ....

Disassembly of section .data:

20000110 <mutex_enter_block_until>:
20000110:	f04f 4150 	mov.w	r1, #3489660928	@ 0xd0000000
20000114:	e92d 41f0 	stmdb	sp!, {r4, r5, r6, r7, r8, lr}
20000118:	2700      	movs	r7, #0
2000011a:	4604      	mov	r4, r0
2000011c:	4616      	mov	r6, r2
2000011e:	461d      	mov	r5, r3
20000120:	f8d1 8000 	ldr.w	r8, [r1]
20000124:	e009      	b.n	2000013a <mutex_enter_block_until+0x2a>
20000126:	6823      	ldr	r3, [r4, #0]
20000128:	e8c3 7f8f 	stlb	r7, [r3]
2000012c:	f38c 8810 	msr	PRIMASK, ip
20000130:	4630      	mov	r0, r6
20000132:	4629      	mov	r1, r5
20000134:	f000 f878 	bl	20000228 <__best_effort_wfe_or_timeout_veneer>
20000138:	b9f0      	cbnz	r0, 20000178 <mutex_enter_block_until+0x68>
2000013a:	6821      	ldr	r1, [r4, #0]
2000013c:	f3ef 8c10 	mrs	ip, PRIMASK
20000140:	b672      	cpsid	i
20000142:	e8d1 2fcf 	ldaexb	r2, [r1]
20000146:	2301      	movs	r3, #1
20000148:	2a00      	cmp	r2, #0
2000014a:	d1fa      	bne.n	20000142 <mutex_enter_block_until+0x32>
2000014c:	e8c1 3f42 	strexb	r2, r3, [r1]
20000150:	2a00      	cmp	r2, #0
20000152:	d1f6      	bne.n	20000142 <mutex_enter_block_until+0x32>
20000154:	f3bf 8f5f 	dmb	sy
20000158:	f994 e004 	ldrsb.w	lr, [r4, #4]
2000015c:	f1be 0f00 	cmp.w	lr, #0
20000160:	dae1      	bge.n	20000126 <mutex_enter_block_until+0x16>
20000162:	2300      	movs	r3, #0
20000164:	6822      	ldr	r2, [r4, #0]
20000166:	f884 8004 	strb.w	r8, [r4, #4]
2000016a:	e8c2 3f8f 	stlb	r3, [r2]
2000016e:	f38c 8810 	msr	PRIMASK, ip
20000172:	2001      	movs	r0, #1
20000174:	e8bd 81f0 	ldmia.w	sp!, {r4, r5, r6, r7, r8, pc}
20000178:	2000      	movs	r0, #0
2000017a:	e8bd 81f0 	ldmia.w	sp!, {r4, r5, r6, r7, r8, pc}
2000017e:	bf00      	nop

20000180 <mutex_try_enter_block_until>:
20000180:	b530      	push	{r4, r5, lr}
20000182:	4601      	mov	r1, r0
20000184:	6804      	ldr	r4, [r0, #0]
20000186:	f3ef 8c10 	mrs	ip, PRIMASK
2000018a:	b672      	cpsid	i
2000018c:	e8d4 efcf 	ldaexb	lr, [r4]
20000190:	2501      	movs	r5, #1
20000192:	f1be 0f00 	cmp.w	lr, #0
20000196:	d1f9      	bne.n	2000018c <mutex_try_enter_block_until+0xc>
20000198:	e8c4 5f4e 	strexb	lr, r5, [r4]
2000019c:	f1be 0f00 	cmp.w	lr, #0
200001a0:	d1f4      	bne.n	2000018c <mutex_try_enter_block_until+0xc>
200001a2:	f3bf 8f5f 	dmb	sy
200001a6:	f990 4004 	ldrsb.w	r4, [r0, #4]
200001aa:	2c00      	cmp	r4, #0
200001ac:	db11      	blt.n	200001d2 <mutex_try_enter_block_until+0x52>
200001ae:	2100      	movs	r1, #0
200001b0:	6805      	ldr	r5, [r0, #0]
200001b2:	e8c5 1f8f 	stlb	r1, [r5]
200001b6:	f38c 8810 	msr	PRIMASK, ip
200001ba:	f04f 4c50 	mov.w	ip, #3489660928	@ 0xd0000000
200001be:	f99c c000 	ldrsb.w	ip, [ip]
200001c2:	45a4      	cmp	ip, r4
200001c4:	d101      	bne.n	200001ca <mutex_try_enter_block_until+0x4a>
200001c6:	4608      	mov	r0, r1
200001c8:	bd30      	pop	{r4, r5, pc}
200001ca:	e8bd 4030 	ldmia.w	sp!, {r4, r5, lr}
200001ce:	f7ff bf9f 	b.w	20000110 <mutex_enter_block_until>
200001d2:	f04f 4050 	mov.w	r0, #3489660928	@ 0xd0000000
200001d6:	6800      	ldr	r0, [r0, #0]
200001d8:	2300      	movs	r3, #0
200001da:	680a      	ldr	r2, [r1, #0]
200001dc:	7108      	strb	r0, [r1, #4]
200001de:	e8c2 3f8f 	stlb	r3, [r2]
200001e2:	f38c 8810 	msr	PRIMASK, ip
200001e6:	2001      	movs	r0, #1
200001e8:	bd30      	pop	{r4, r5, pc}
200001ea:	bf00      	nop

200001ec <mutex_exit>:
200001ec:	6803      	ldr	r3, [r0, #0]
200001ee:	f3ef 8210 	mrs	r2, PRIMASK
200001f2:	b672      	cpsid	i
200001f4:	e8d3 cfcf 	ldaexb	ip, [r3]
200001f8:	2101      	movs	r1, #1
200001fa:	f1bc 0f00 	cmp.w	ip, #0
200001fe:	d1f9      	bne.n	200001f4 <mutex_exit+0x8>
20000200:	e8c3 1f4c 	strexb	ip, r1, [r3]
20000204:	f1bc 0f00 	cmp.w	ip, #0
20000208:	d1f4      	bne.n	200001f4 <mutex_exit+0x8>
2000020a:	f3bf 8f5f 	dmb	sy
2000020e:	f04f 0cff 	mov.w	ip, #255	@ 0xff
20000212:	2300      	movs	r3, #0
20000214:	6801      	ldr	r1, [r0, #0]
20000216:	f880 c004 	strb.w	ip, [r0, #4]
2000021a:	e8c1 3f8f 	stlb	r3, [r1]
2000021e:	f382 8810 	msr	PRIMASK, r2
20000222:	bf40      	sev
20000224:	4770      	bx	lr
20000226:	bf00      	nop

20000228 <__best_effort_wfe_or_timeout_veneer>:
20000228:	f85f f000 	ldr.w	pc, [pc]	@ 2000022c <__best_effort_wfe_or_timeout_veneer+0x4>
2000022c:	10000b01 	.word	0x10000b01

20000230 <striped_spin_lock_num>:
20000230:	00000010                                ....

20000234 <default_alarm_pool>:
	...
20000248:	20000258                                X.. 

2000024c <print_mutex>:
	...
